Microchip MPLAB XC8 Compiler V1.45 ()

Linker command line:

-W-3 --edf=/opt/microchip/xc8/v1.45/dat/en_msgs.txt -cs \
  -h+dist/default/production/maingame.X.production.sym \
  --cmf=dist/default/production/maingame.X.production.cmf -z -Q16F1829 \
  -o/tmp/xcX2qmq1x -Mdist/default/production/maingame.X.production.map -E1 \
  -ver=XC8 -ASTACK=02044h-023efh -pstack=STACK -ACODE=00h-07FFhx4 \
  -ASTRCODE=00h-01FFFh -ASTRING=00h-0FFhx32 -ACONST=00h-0FFhx32 \
  -AENTRY=00h-0FFhx32 -ACOMMON=070h-07Fh -ABANK0=020h-06Fh \
  -ABANK1=0A0h-0EFh -ABANK2=0120h-016Fh -ABANK3=01A0h-01EFh \
  -ABANK4=0220h-026Fh -ABANK5=02A0h-02EFh -ABANK6=0320h-036Fh \
  -ABANK7=03A0h-03EFh -ABANK8=0420h-046Fh -ABANK9=04A0h-04EFh \
  -ABANK10=0520h-056Fh -ABANK11=05A0h-05EFh -ABANK12=0620h-064Fh \
  -ABIGRAM=02000h-023EFh \
  -ARAM=020h-06Fh,0A0h-0EFh,0120h-016Fh,01A0h-01EFh,0220h-026Fh,02A0h-02EFh,0320h-036Fh,03A0h-03EFh,0420h-046Fh,04A0h-04EFh,0520h-056Fh,05A0h-05EFh,0620h-064Fh \
  -AABS1=020h-07Fh,0A0h-0EFh,0120h-016Fh,01A0h-01EFh,0220h-026Fh,02A0h-02EFh,0320h-036Fh,03A0h-03EFh,0420h-046Fh,04A0h-04EFh,0520h-056Fh,05A0h-05EFh,0620h-064Fh \
  -ASFR0=00h-01Fh -ASFR1=080h-09Fh -ASFR2=0100h-011Fh -ASFR3=0180h-019Fh \
  -ASFR4=0200h-021Fh -ASFR5=0280h-029Fh -ASFR6=0300h-031Fh \
  -ASFR7=0380h-039Fh -ASFR8=0400h-041Fh -ASFR9=0480h-049Fh \
  -ASFR10=0500h-051Fh -ASFR11=0580h-059Fh -ASFR12=0600h-061Fh \
  -ASFR13=0680h-06EFh -ASFR14=0700h-076Fh -ASFR15=0780h-07EFh \
  -ASFR16=0800h-086Fh -ASFR17=0880h-08EFh -ASFR18=0900h-096Fh \
  -ASFR19=0980h-09EFh -ASFR20=0A00h-0A6Fh -ASFR21=0A80h-0AEFh \
  -ASFR22=0B00h-0B6Fh -ASFR23=0B80h-0BEFh -ASFR24=0C00h-0C6Fh \
  -ASFR25=0C80h-0CEFh -ASFR26=0D00h-0D6Fh -ASFR27=0D80h-0DEFh \
  -ASFR28=0E00h-0E6Fh -ASFR29=0E80h-0EEFh -ASFR30=0F00h-0F6Fh \
  -ASFR31=0F80h-0FEFh -preset_vec=00h,intentry=04h,init,end_init \
  -ppowerup=CODE -pcinit=CODE -pfunctab=ENTRY -ACONFIG=08007h-08008h \
  -pconfig=CONFIG -DCONFIG=2 -AIDLOC=08000h-08003h -pidloc=IDLOC -DIDLOC=2 \
  -AEEDATA=00h-0FFh/0F000h -peeprom_data=EEDATA -DEEDATA=2 -DCODE=2 \
  -DSTRCODE=2 -DSTRING=2 -DCONST=2 -DENTRY=2 -k /tmp/xcX4WIhoM.obj \
  dist/default/production/maingame.X.production.obj 

Object code version is 3.11

Machine type is 16F1829



                Name                               Link     Load   Length Selector   Space Scale
/tmp/xcX4WIhoM.obj
                end_init                             44       44        2        8       0
                reset_vec                             0        0        2        0       0
                config                             8007     8007        2    1000E       0
dist/default/production/maingame.X.production.obj
                cinit                                46       46       1F        8       0
                intentry                              4        4       40        8       0
                text49                             11B6     11B6        8     236C       0
                text47                             11BE     11BE        8     237C       0
                text46                              800      800        F     1000       0
                text45                             1268     1268       1C     24D0       0
                text44                             1181     1181        5     2302       0
                text43                             1186     1186        5     230C       0
                text42                             118B     118B        5     2316       0
                text41                             11A8     11A8        7     2350       0
                text40                             14A4     14A4       57     2948       0
                text39                             139B     139B       3B     2736       0
                text38                             1415     1415       47     282A       0
                text37                             13D6     13D6       3F     27AC       0
                text36                             14FB     14FB       5B     29F6       0
                text35                             1222     1222       16     2444       0
                text34                             1175     1175        4     22EA       0
                text33                             11E0     11E0        C     23C0       0
                text32                             1333     1333       34     2666       0
                text31                             1306     1306       2D     260C       0
                text30                             11AF     11AF        7     235E       0
                text29                             15BE     15BE      11D     2B7C       0
                text28                             1238     1238       16     2470       0
                text27                             11CE     11CE        9     239C       0
                text26                             12C1     12C1       21     2582       0
                text25                             1204     1204        D     2408       0
                text24                             12A1     12A1       20     2542       0
                text23                             1190     1190        6     2320       0
                text22                             1196     1196        6     232C       0
                text21                             12E2     12E2       24     25C4       0
                text20                             119C     119C        6     2338       0
                text19                              55D      55D      1B4        8       0
                text18                             145C     145C       48     28B8       0
                text17                              BC3      BC3      43D     1786       0
                text16                             11A2     11A2        6     2344       0
                text15                             11EC     11EC        C     23D8       0
                text14                             11D7     11D7        9     23AE       0
                text13                             1367     1367       34     26CE       0
                text12                             124E     124E       1A     249C       0
                text11                               65       65      4F8        8       0
                text10                             11F8     11F8        C     23F0       0
                text9                              1179     1179        4     22F2       0
                text8                              1211     1211       11     2422       0
                text7                              16DB     16DB      125     2DB6       0
                text6                               711      711       BD        8       0
                text5                              1556     1556       68     2AAC       0
                text4                               80F      80F       68     101E       0
                text3                               7CE      7CE       31        8       0
                text2                              1284     1284       1D     2508       0
                text1                              11C6     11C6        8     238C       0
                maintext                            877      877      34C     10EE       0
                cstackBANK0                          20       20       36       20       1
                cstackCOMMON                         70       70        A       70       1
                dataBANK0                            60       60        4       20       1
                bssBANK0                             56       56        A       20       1
                bssCOMMON                            7A       7A        2       70       1
                stringtext298                      1FFD     1FFD        2     3000       0
                stringtext297                      1FFB     1FFB        2     3000       0
                stringtext296                      1FF9     1FF9        2     3000       0
                stringtext295                      186F     186F        A     3000       0
                stringtext294                      1865     1865        A     3000       0
                stringtext293                      185B     185B        A     3000       0
                stringtext292                      1845     1845        C     3000       0
                stringtext291                      1838     1838        D     3000       0
                stringtext290                      1829     1829        F     3000       0
                stringtext289                      1819     1819       10     3000       0
                stringtext288                      1800     1800       19     3000       0
                stringtext287                      1168     1168        8     2000       0
                stringtext286                      1160     1160        8     2000       0
                stringtext285                      1158     1158        8     2000       0
                stringtext284                      1150     1150        8     2000       0
                stringtext283                      1148     1148        8     2000       0
                stringtext282                      1140     1140        8     2000       0
                stringtext281                      1138     1138        8     2000       0
                stringtext280                      1130     1130        8     2000       0
                stringtext279                      1128     1128        8     2000       0
                stringtext278                      1120     1120        8     2000       0
                stringtext277                      1118     1118        8     2000       0
                stringtext276                      1110     1110        8     2000       0
                stringtext275                      1108     1108        8     2000       0
                stringtext274                      1100     1100        8     2000       0
                stringtext273                      10F8     10F8        8     2000       0
                stringtext272                      10F0     10F0        8     2000       0
                stringtext271                      10E8     10E8        8     2000       0
                stringtext270                      10E0     10E0        8     2000       0
                stringtext269                      10D8     10D8        8     2000       0
                stringtext268                      10D0     10D0        8     2000       0
                stringtext267                      10C8     10C8        8     2000       0
                stringtext266                      10C0     10C0        8     2000       0
                stringtext265                      10B8     10B8        8     2000       0
                stringtext264                      10B0     10B0        8     2000       0
                stringtext263                      10A8     10A8        8     2000       0
                stringtext262                      10A0     10A0        8     2000       0
                stringtext261                      1098     1098        8     2000       0
                stringtext260                      1090     1090        8     2000       0
                stringtext259                      1088     1088        8     2000       0
                stringtext258                      1080     1080        8     2000       0
                stringtext257                      1078     1078        8     2000       0
                stringtext256                      1070     1070        8     2000       0
                stringtext255                      1068     1068        8     2000       0
                stringtext254                      1060     1060        8     2000       0
                stringtext253                      1058     1058        8     2000       0
                stringtext252                      1050     1050        8     2000       0
                stringtext251                      1048     1048        8     2000       0
                stringtext250                      1040     1040        8     2000       0
                stringtext249                      1038     1038        8     2000       0
                stringtext248                      1030     1030        8     2000       0
                stringtext247                      1028     1028        8     2000       0
                stringtext246                      1020     1020        8     2000       0
                stringtext245                      1018     1018        8     2000       0
                stringtext244                      1010     1010        8     2000       0
                stringtext243                      1008     1008        8     2000       0
                stringtext242                      1000     1000        8     2000       0
                stringtext241                      1FF1     1FF1        8     3000       0
                stringtext240                      1FE9     1FE9        8     3000       0
                stringtext239                      1FE1     1FE1        8     3000       0
                stringtext238                      1FD9     1FD9        8     3000       0
                stringtext237                      1FD1     1FD1        8     3000       0
                stringtext236                      1FC9     1FC9        8     3000       0
                stringtext235                      1FC1     1FC1        8     3000       0
                stringtext234                      1FB9     1FB9        8     3000       0
                stringtext233                      1FB1     1FB1        8     3000       0
                stringtext232                      1FA9     1FA9        8     3000       0
                stringtext231                      1FA1     1FA1        8     3000       0
                stringtext230                      1F99     1F99        8     3000       0
                stringtext229                      1F91     1F91        8     3000       0
                stringtext228                      1F89     1F89        8     3000       0
                stringtext227                      1F81     1F81        8     3000       0
                stringtext226                      1F79     1F79        8     3000       0
                stringtext225                      1F71     1F71        8     3000       0
                stringtext224                      1F69     1F69        8     3000       0
                stringtext223                      1F61     1F61        8     3000       0
                stringtext222                      1F59     1F59        8     3000       0
                stringtext221                      1F51     1F51        8     3000       0
                stringtext220                      1F49     1F49        8     3000       0
                stringtext219                      1F41     1F41        8     3000       0
                stringtext218                      1F39     1F39        8     3000       0
                stringtext217                      1F31     1F31        8     3000       0
                stringtext216                      1F29     1F29        8     3000       0
                stringtext215                      1F21     1F21        8     3000       0
                stringtext214                      1F19     1F19        8     3000       0
                stringtext213                      1F11     1F11        8     3000       0
                stringtext212                      1F09     1F09        8     3000       0
                stringtext211                      1F01     1F01        8     3000       0
                stringtext210                      1EF9     1EF9        8     3000       0
                stringtext209                      1EF1     1EF1        8     3000       0
                stringtext208                      1EE9     1EE9        8     3000       0
                stringtext207                      1EE1     1EE1        8     3000       0
                stringtext206                      1ED9     1ED9        8     3000       0
                stringtext205                      1ED1     1ED1        8     3000       0
                stringtext204                      1EC9     1EC9        8     3000       0
                stringtext203                      1EC1     1EC1        8     3000       0
                stringtext202                      1EB9     1EB9        8     3000       0
                stringtext201                      1EB1     1EB1        8     3000       0
                stringtext200                      1EA9     1EA9        8     3000       0
                stringtext199                      1EA1     1EA1        8     3000       0
                stringtext198                      1E99     1E99        8     3000       0
                stringtext197                      1E91     1E91        8     3000       0
                stringtext196                      1E89     1E89        8     3000       0
                stringtext195                      1E81     1E81        8     3000       0
                stringtext194                      1E79     1E79        8     3000       0
                stringtext193                      1E71     1E71        8     3000       0
                stringtext192                      1E69     1E69        8     3000       0
                stringtext191                      1E61     1E61        8     3000       0
                stringtext190                      1E59     1E59        8     3000       0
                stringtext189                      1E51     1E51        8     3000       0
                stringtext188                      1E49     1E49        8     3000       0
                stringtext187                      1E41     1E41        8     3000       0
                stringtext186                      1E39     1E39        8     3000       0
                stringtext185                      1E31     1E31        8     3000       0
                stringtext184                      1E29     1E29        8     3000       0
                stringtext183                      1E21     1E21        8     3000       0
                stringtext182                      1E19     1E19        8     3000       0
                stringtext181                      1E11     1E11        8     3000       0
                stringtext180                      1E09     1E09        8     3000       0
                stringtext179                      1E01     1E01        8     3000       0
                stringtext178                      1DF9     1DF9        8     3000       0
                stringtext177                      1DF1     1DF1        8     3000       0
                stringtext176                      1DE9     1DE9        8     3000       0
                stringtext175                      1DE1     1DE1        8     3000       0
                stringtext174                      1DD9     1DD9        8     3000       0
                stringtext173                      1DD1     1DD1        8     3000       0
                stringtext172                      1DC9     1DC9        8     3000       0
                stringtext171                      1DC1     1DC1        8     3000       0
                stringtext170                      1DB9     1DB9        8     3000       0
                stringtext169                      1DB1     1DB1        8     3000       0
                stringtext168                      1DA9     1DA9        8     3000       0
                stringtext167                      1DA1     1DA1        8     3000       0
                stringtext166                      1D99     1D99        8     3000       0
                stringtext165                      1D91     1D91        8     3000       0
                stringtext164                      1D89     1D89        8     3000       0
                stringtext163                      1D81     1D81        8     3000       0
                stringtext162                      1D79     1D79        8     3000       0
                stringtext161                      1D71     1D71        8     3000       0
                stringtext160                      1D69     1D69        8     3000       0
                stringtext159                      1D61     1D61        8     3000       0
                stringtext158                      1D59     1D59        8     3000       0
                stringtext157                      1D51     1D51        8     3000       0
                stringtext156                      1D49     1D49        8     3000       0
                stringtext155                      1D41     1D41        8     3000       0
                stringtext154                      1D39     1D39        8     3000       0
                stringtext153                      1D31     1D31        8     3000       0
                stringtext152                      1D29     1D29        8     3000       0
                stringtext151                      1D21     1D21        8     3000       0
                stringtext150                      1D19     1D19        8     3000       0
                stringtext149                      1D11     1D11        8     3000       0
                stringtext148                      1D09     1D09        8     3000       0
                stringtext147                      1D01     1D01        8     3000       0
                stringtext146                      1CF9     1CF9        8     3000       0
                stringtext145                      1CF1     1CF1        8     3000       0
                stringtext144                      1CE9     1CE9        8     3000       0
                stringtext143                      1CE1     1CE1        8     3000       0
                stringtext142                      1CD9     1CD9        8     3000       0
                stringtext141                      1CD1     1CD1        8     3000       0
                stringtext140                      1CC9     1CC9        8     3000       0
                stringtext139                      1CC1     1CC1        8     3000       0
                stringtext138                      1CB9     1CB9        8     3000       0
                stringtext137                      1CB1     1CB1        8     3000       0
                stringtext136                      1CA9     1CA9        8     3000       0
                stringtext135                      1CA1     1CA1        8     3000       0
                stringtext134                      1C99     1C99        8     3000       0
                stringtext133                      1C91     1C91        8     3000       0
                stringtext132                      1C89     1C89        8     3000       0
                stringtext131                      1C81     1C81        8     3000       0
                stringtext130                      1C79     1C79        8     3000       0
                stringtext129                      1C71     1C71        8     3000       0
                stringtext128                      1C69     1C69        8     3000       0
                stringtext127                      1C61     1C61        8     3000       0
                stringtext126                      1C59     1C59        8     3000       0
                stringtext125                      1C51     1C51        8     3000       0
                stringtext124                      1C49     1C49        8     3000       0
                stringtext123                      1C41     1C41        8     3000       0
                stringtext122                      1C39     1C39        8     3000       0
                stringtext121                      1C31     1C31        8     3000       0
                stringtext120                      1C29     1C29        8     3000       0
                stringtext119                      1C21     1C21        8     3000       0
                stringtext118                      1C19     1C19        8     3000       0
                stringtext117                      1C11     1C11        8     3000       0
                stringtext116                      1C09     1C09        8     3000       0
                stringtext115                      1C01     1C01        8     3000       0
                stringtext114                      1BF9     1BF9        8     3000       0
                stringtext113                      1BF1     1BF1        8     3000       0
                stringtext112                      1BE9     1BE9        8     3000       0
                stringtext111                      1BE1     1BE1        8     3000       0
                stringtext110                      1BD9     1BD9        8     3000       0
                stringtext109                      1BD1     1BD1        8     3000       0
                stringtext108                      1BC9     1BC9        8     3000       0
                stringtext107                      1BC1     1BC1        8     3000       0
                stringtext106                      1BB9     1BB9        8     3000       0
                stringtext105                      1BB1     1BB1        8     3000       0
                stringtext104                      1BA9     1BA9        8     3000       0
                stringtext103                      1BA1     1BA1        8     3000       0
                stringtext102                      1B99     1B99        8     3000       0
                stringtext101                      1B91     1B91        8     3000       0
                stringtext100                      1B89     1B89        8     3000       0
                stringtext99                       1B81     1B81        8     3000       0
                stringtext98                       1B79     1B79        8     3000       0
                stringtext97                       1B71     1B71        8     3000       0
                stringtext96                       1B69     1B69        8     3000       0
                stringtext95                       1B61     1B61        8     3000       0
                stringtext94                       1B59     1B59        8     3000       0
                stringtext93                       1B51     1B51        8     3000       0
                stringtext92                       1B49     1B49        8     3000       0
                stringtext91                       1B41     1B41        8     3000       0
                stringtext90                       1B39     1B39        8     3000       0
                stringtext89                       1B31     1B31        8     3000       0
                stringtext88                       1B29     1B29        8     3000       0
                stringtext87                       1B21     1B21        8     3000       0
                stringtext86                       1B19     1B19        8     3000       0
                stringtext85                       1B11     1B11        8     3000       0
                stringtext84                       1B09     1B09        8     3000       0
                stringtext83                       1B01     1B01        8     3000       0
                stringtext82                       1AF9     1AF9        8     3000       0
                stringtext81                       1AF1     1AF1        8     3000       0
                stringtext80                       1AE9     1AE9        8     3000       0
                stringtext79                       1AE1     1AE1        8     3000       0
                stringtext78                       1AD9     1AD9        8     3000       0
                stringtext77                       1AD1     1AD1        8     3000       0
                stringtext76                       1AC9     1AC9        8     3000       0
                stringtext75                       1AC1     1AC1        8     3000       0
                stringtext74                       1AB9     1AB9        8     3000       0
                stringtext73                       1AB1     1AB1        8     3000       0
                stringtext72                       1AA9     1AA9        8     3000       0
                stringtext71                       1AA1     1AA1        8     3000       0
                stringtext70                       1A99     1A99        8     3000       0
                stringtext69                       1A91     1A91        8     3000       0
                stringtext68                       1A89     1A89        8     3000       0
                stringtext67                       1A81     1A81        8     3000       0
                stringtext66                       1A79     1A79        8     3000       0
                stringtext65                       1A71     1A71        8     3000       0
                stringtext64                       1A69     1A69        8     3000       0
                stringtext63                       1A61     1A61        8     3000       0
                stringtext62                       1A59     1A59        8     3000       0
                stringtext61                       1A51     1A51        8     3000       0
                stringtext60                       1A49     1A49        8     3000       0
                stringtext59                       1A41     1A41        8     3000       0
                stringtext58                       1A39     1A39        8     3000       0
                stringtext57                       1A31     1A31        8     3000       0
                stringtext56                       1A29     1A29        8     3000       0
                stringtext55                       1A21     1A21        8     3000       0
                stringtext54                       1A19     1A19        8     3000       0
                stringtext53                       1A11     1A11        8     3000       0
                stringtext52                       1A09     1A09        8     3000       0
                stringtext51                       1A01     1A01        8     3000       0
                stringtext50                       19F9     19F9        8     3000       0
                stringtext49                       19F1     19F1        8     3000       0
                stringtext48                       19E9     19E9        8     3000       0
                stringtext47                       19E1     19E1        8     3000       0
                stringtext46                       19D9     19D9        8     3000       0
                stringtext45                       19D1     19D1        8     3000       0
                stringtext44                       19C9     19C9        8     3000       0
                stringtext43                       19C1     19C1        8     3000       0
                stringtext42                       19B9     19B9        8     3000       0
                stringtext41                       19B1     19B1        8     3000       0
                stringtext40                       19A9     19A9        8     3000       0
                stringtext39                       19A1     19A1        8     3000       0
                stringtext38                       1999     1999        8     3000       0
                stringtext37                       1991     1991        8     3000       0
                stringtext36                       1989     1989        8     3000       0
                stringtext35                       1981     1981        8     3000       0
                stringtext34                       1979     1979        8     3000       0
                stringtext33                       1971     1971        8     3000       0
                stringtext32                       1969     1969        8     3000       0
                stringtext31                       1961     1961        8     3000       0
                stringtext30                       1959     1959        8     3000       0
                stringtext29                       1951     1951        8     3000       0
                stringtext28                       1949     1949        8     3000       0
                stringtext27                       1941     1941        8     3000       0
                stringtext26                       1939     1939        8     3000       0
                stringtext25                       1931     1931        8     3000       0
                stringtext24                       1929     1929        8     3000       0
                stringtext23                       1921     1921        8     3000       0
                stringtext22                       1919     1919        8     3000       0
                stringtext21                       1911     1911        8     3000       0
                stringtext20                       1909     1909        8     3000       0
                stringtext19                       1901     1901        8     3000       0
                stringtext18                       18F9     18F9        8     3000       0
                stringtext17                       18F1     18F1        8     3000       0
                stringtext16                       18E9     18E9        8     3000       0
                stringtext15                       18E1     18E1        8     3000       0
                stringtext14                       18D9     18D9        8     3000       0
                stringtext13                       18D1     18D1        8     3000       0
                stringtext12                       18C9     18C9        8     3000       0
                stringtext11                       18C1     18C1        8     3000       0
                stringtext10                       18B9     18B9        8     3000       0
                stringtext9                        18B1     18B1        8     3000       0
                stringtext8                        18A9     18A9        8     3000       0
                stringtext7                        18A1     18A1        8     3000       0
                stringtext6                        1899     1899        8     3000       0
                stringtext5                        1891     1891        8     3000       0
                stringtext4                        1889     1889        8     3000       0
                stringtext3                        1881     1881        8     3000       0
                stringtext2                        1879     1879        8     3000       0
                stringtext1                        1851     1851        A     3000       0
                idataBANK0                         117D     117D        4     22FA       0

TOTAL           Name                               Link     Load   Length     Space
        CLASS   STACK          

        CLASS   CODE           
                end_init                             44       44        2         0
                cinit                                46       46       1F         0
                intentry                              4        4       40         0
                reset_vec                             0        0        2         0
                text49                             11B6     11B6        8         0
                text47                             11BE     11BE        8         0
                text46                              800      800        F         0
                text45                             1268     1268       1C         0
                text44                             1181     1181        5         0
                text43                             1186     1186        5         0
                text42                             118B     118B        5         0
                text41                             11A8     11A8        7         0
                text40                             14A4     14A4       57         0
                text39                             139B     139B       3B         0
                text38                             1415     1415       47         0
                text37                             13D6     13D6       3F         0
                text36                             14FB     14FB       5B         0
                text35                             1222     1222       16         0
                text34                             1175     1175        4         0
                text33                             11E0     11E0        C         0
                text32                             1333     1333       34         0
                text31                             1306     1306       2D         0
                text30                             11AF     11AF        7         0
                text29                             15BE     15BE      11D         0
                text28                             1238     1238       16         0
                text27                             11CE     11CE        9         0
                text26                             12C1     12C1       21         0
                text25                             1204     1204        D         0
                text24                             12A1     12A1       20         0
                text23                             1190     1190        6         0
                text22                             1196     1196        6         0
                text21                             12E2     12E2       24         0
                text20                             119C     119C        6         0
                text19                              55D      55D      1B4         0
                text18                             145C     145C       48         0
                text17                              BC3      BC3      43D         0
                text16                             11A2     11A2        6         0
                text15                             11EC     11EC        C         0
                text14                             11D7     11D7        9         0
                text13                             1367     1367       34         0
                text12                             124E     124E       1A         0
                text11                               65       65      4F8         0
                text10                             11F8     11F8        C         0
                text9                              1179     1179        4         0
                text8                              1211     1211       11         0
                text7                              16DB     16DB      125         0
                text6                               711      711       BD         0
                text5                              1556     1556       68         0
                text4                               80F      80F       68         0
                text3                               7CE      7CE       31         0
                text2                              1284     1284       1D         0
                text1                              11C6     11C6        8         0
                maintext                            877      877      34C         0
                idataBANK0                         117D     117D        4         0

        CLASS   STRCODE        
                stringtext298                      1FFD     1FFD        2         0
                stringtext297                      1FFB     1FFB        2         0
                stringtext296                      1FF9     1FF9        2         0
                stringtext295                      186F     186F        A         0
                stringtext294                      1865     1865        A         0
                stringtext293                      185B     185B        A         0
                stringtext292                      1845     1845        C         0
                stringtext291                      1838     1838        D         0
                stringtext290                      1829     1829        F         0
                stringtext289                      1819     1819       10         0
                stringtext288                      1800     1800       19         0
                stringtext287                      1168     1168        8         0
                stringtext286                      1160     1160        8         0
                stringtext285                      1158     1158        8         0
                stringtext284                      1150     1150        8         0
                stringtext283                      1148     1148        8         0
                stringtext282                      1140     1140        8         0
                stringtext281                      1138     1138        8         0
                stringtext280                      1130     1130        8         0
                stringtext279                      1128     1128        8         0
                stringtext278                      1120     1120        8         0
                stringtext277                      1118     1118        8         0
                stringtext276                      1110     1110        8         0
                stringtext275                      1108     1108        8         0
                stringtext274                      1100     1100        8         0
                stringtext273                      10F8     10F8        8         0
                stringtext272                      10F0     10F0        8         0
                stringtext271                      10E8     10E8        8         0
                stringtext270                      10E0     10E0        8         0
                stringtext269                      10D8     10D8        8         0
                stringtext268                      10D0     10D0        8         0
                stringtext267                      10C8     10C8        8         0
                stringtext266                      10C0     10C0        8         0
                stringtext265                      10B8     10B8        8         0
                stringtext264                      10B0     10B0        8         0
                stringtext263                      10A8     10A8        8         0
                stringtext262                      10A0     10A0        8         0
                stringtext261                      1098     1098        8         0
                stringtext260                      1090     1090        8         0
                stringtext259                      1088     1088        8         0
                stringtext258                      1080     1080        8         0
                stringtext257                      1078     1078        8         0
                stringtext256                      1070     1070        8         0
                stringtext255                      1068     1068        8         0
                stringtext254                      1060     1060        8         0
                stringtext253                      1058     1058        8         0
                stringtext252                      1050     1050        8         0
                stringtext251                      1048     1048        8         0
                stringtext250                      1040     1040        8         0
                stringtext249                      1038     1038        8         0
                stringtext248                      1030     1030        8         0
                stringtext247                      1028     1028        8         0
                stringtext246                      1020     1020        8         0
                stringtext245                      1018     1018        8         0
                stringtext244                      1010     1010        8         0
                stringtext243                      1008     1008        8         0
                stringtext242                      1000     1000        8         0
                stringtext241                      1FF1     1FF1        8         0
                stringtext240                      1FE9     1FE9        8         0
                stringtext239                      1FE1     1FE1        8         0
                stringtext238                      1FD9     1FD9        8         0
                stringtext237                      1FD1     1FD1        8         0
                stringtext236                      1FC9     1FC9        8         0
                stringtext235                      1FC1     1FC1        8         0
                stringtext234                      1FB9     1FB9        8         0
                stringtext233                      1FB1     1FB1        8         0
                stringtext232                      1FA9     1FA9        8         0
                stringtext231                      1FA1     1FA1        8         0
                stringtext230                      1F99     1F99        8         0
                stringtext229                      1F91     1F91        8         0
                stringtext228                      1F89     1F89        8         0
                stringtext227                      1F81     1F81        8         0
                stringtext226                      1F79     1F79        8         0
                stringtext225                      1F71     1F71        8         0
                stringtext224                      1F69     1F69        8         0
                stringtext223                      1F61     1F61        8         0
                stringtext222                      1F59     1F59        8         0
                stringtext221                      1F51     1F51        8         0
                stringtext220                      1F49     1F49        8         0
                stringtext219                      1F41     1F41        8         0
                stringtext218                      1F39     1F39        8         0
                stringtext217                      1F31     1F31        8         0
                stringtext216                      1F29     1F29        8         0
                stringtext215                      1F21     1F21        8         0
                stringtext214                      1F19     1F19        8         0
                stringtext213                      1F11     1F11        8         0
                stringtext212                      1F09     1F09        8         0
                stringtext211                      1F01     1F01        8         0
                stringtext210                      1EF9     1EF9        8         0
                stringtext209                      1EF1     1EF1        8         0
                stringtext208                      1EE9     1EE9        8         0
                stringtext207                      1EE1     1EE1        8         0
                stringtext206                      1ED9     1ED9        8         0
                stringtext205                      1ED1     1ED1        8         0
                stringtext204                      1EC9     1EC9        8         0
                stringtext203                      1EC1     1EC1        8         0
                stringtext202                      1EB9     1EB9        8         0
                stringtext201                      1EB1     1EB1        8         0
                stringtext200                      1EA9     1EA9        8         0
                stringtext199                      1EA1     1EA1        8         0
                stringtext198                      1E99     1E99        8         0
                stringtext197                      1E91     1E91        8         0
                stringtext196                      1E89     1E89        8         0
                stringtext195                      1E81     1E81        8         0
                stringtext194                      1E79     1E79        8         0
                stringtext193                      1E71     1E71        8         0
                stringtext192                      1E69     1E69        8         0
                stringtext191                      1E61     1E61        8         0
                stringtext190                      1E59     1E59        8         0
                stringtext189                      1E51     1E51        8         0
                stringtext188                      1E49     1E49        8         0
                stringtext187                      1E41     1E41        8         0
                stringtext186                      1E39     1E39        8         0
                stringtext185                      1E31     1E31        8         0
                stringtext184                      1E29     1E29        8         0
                stringtext183                      1E21     1E21        8         0
                stringtext182                      1E19     1E19        8         0
                stringtext181                      1E11     1E11        8         0
                stringtext180                      1E09     1E09        8         0
                stringtext179                      1E01     1E01        8         0
                stringtext178                      1DF9     1DF9        8         0
                stringtext177                      1DF1     1DF1        8         0
                stringtext176                      1DE9     1DE9        8         0
                stringtext175                      1DE1     1DE1        8         0
                stringtext174                      1DD9     1DD9        8         0
                stringtext173                      1DD1     1DD1        8         0
                stringtext172                      1DC9     1DC9        8         0
                stringtext171                      1DC1     1DC1        8         0
                stringtext170                      1DB9     1DB9        8         0
                stringtext169                      1DB1     1DB1        8         0
                stringtext168                      1DA9     1DA9        8         0
                stringtext167                      1DA1     1DA1        8         0
                stringtext166                      1D99     1D99        8         0
                stringtext165                      1D91     1D91        8         0
                stringtext164                      1D89     1D89        8         0
                stringtext163                      1D81     1D81        8         0
                stringtext162                      1D79     1D79        8         0
                stringtext161                      1D71     1D71        8         0
                stringtext160                      1D69     1D69        8         0
                stringtext159                      1D61     1D61        8         0
                stringtext158                      1D59     1D59        8         0
                stringtext157                      1D51     1D51        8         0
                stringtext156                      1D49     1D49        8         0
                stringtext155                      1D41     1D41        8         0
                stringtext154                      1D39     1D39        8         0
                stringtext153                      1D31     1D31        8         0
                stringtext152                      1D29     1D29        8         0
                stringtext151                      1D21     1D21        8         0
                stringtext150                      1D19     1D19        8         0
                stringtext149                      1D11     1D11        8         0
                stringtext148                      1D09     1D09        8         0
                stringtext147                      1D01     1D01        8         0
                stringtext146                      1CF9     1CF9        8         0
                stringtext145                      1CF1     1CF1        8         0
                stringtext144                      1CE9     1CE9        8         0
                stringtext143                      1CE1     1CE1        8         0
                stringtext142                      1CD9     1CD9        8         0
                stringtext141                      1CD1     1CD1        8         0
                stringtext140                      1CC9     1CC9        8         0
                stringtext139                      1CC1     1CC1        8         0
                stringtext138                      1CB9     1CB9        8         0
                stringtext137                      1CB1     1CB1        8         0
                stringtext136                      1CA9     1CA9        8         0
                stringtext135                      1CA1     1CA1        8         0
                stringtext134                      1C99     1C99        8         0
                stringtext133                      1C91     1C91        8         0
                stringtext132                      1C89     1C89        8         0
                stringtext131                      1C81     1C81        8         0
                stringtext130                      1C79     1C79        8         0
                stringtext129                      1C71     1C71        8         0
                stringtext128                      1C69     1C69        8         0
                stringtext127                      1C61     1C61        8         0
                stringtext126                      1C59     1C59        8         0
                stringtext125                      1C51     1C51        8         0
                stringtext124                      1C49     1C49        8         0
                stringtext123                      1C41     1C41        8         0
                stringtext122                      1C39     1C39        8         0
                stringtext121                      1C31     1C31        8         0
                stringtext120                      1C29     1C29        8         0
                stringtext119                      1C21     1C21        8         0
                stringtext118                      1C19     1C19        8         0
                stringtext117                      1C11     1C11        8         0
                stringtext116                      1C09     1C09        8         0
                stringtext115                      1C01     1C01        8         0
                stringtext114                      1BF9     1BF9        8         0
                stringtext113                      1BF1     1BF1        8         0
                stringtext112                      1BE9     1BE9        8         0
                stringtext111                      1BE1     1BE1        8         0
                stringtext110                      1BD9     1BD9        8         0
                stringtext109                      1BD1     1BD1        8         0
                stringtext108                      1BC9     1BC9        8         0
                stringtext107                      1BC1     1BC1        8         0
                stringtext106                      1BB9     1BB9        8         0
                stringtext105                      1BB1     1BB1        8         0
                stringtext104                      1BA9     1BA9        8         0
                stringtext103                      1BA1     1BA1        8         0
                stringtext102                      1B99     1B99        8         0
                stringtext101                      1B91     1B91        8         0
                stringtext100                      1B89     1B89        8         0
                stringtext99                       1B81     1B81        8         0
                stringtext98                       1B79     1B79        8         0
                stringtext97                       1B71     1B71        8         0
                stringtext96                       1B69     1B69        8         0
                stringtext95                       1B61     1B61        8         0
                stringtext94                       1B59     1B59        8         0
                stringtext93                       1B51     1B51        8         0
                stringtext92                       1B49     1B49        8         0
                stringtext91                       1B41     1B41        8         0
                stringtext90                       1B39     1B39        8         0
                stringtext89                       1B31     1B31        8         0
                stringtext88                       1B29     1B29        8         0
                stringtext87                       1B21     1B21        8         0
                stringtext86                       1B19     1B19        8         0
                stringtext85                       1B11     1B11        8         0
                stringtext84                       1B09     1B09        8         0
                stringtext83                       1B01     1B01        8         0
                stringtext82                       1AF9     1AF9        8         0
                stringtext81                       1AF1     1AF1        8         0
                stringtext80                       1AE9     1AE9        8         0
                stringtext79                       1AE1     1AE1        8         0
                stringtext78                       1AD9     1AD9        8         0
                stringtext77                       1AD1     1AD1        8         0
                stringtext76                       1AC9     1AC9        8         0
                stringtext75                       1AC1     1AC1        8         0
                stringtext74                       1AB9     1AB9        8         0
                stringtext73                       1AB1     1AB1        8         0
                stringtext72                       1AA9     1AA9        8         0
                stringtext71                       1AA1     1AA1        8         0
                stringtext70                       1A99     1A99        8         0
                stringtext69                       1A91     1A91        8         0
                stringtext68                       1A89     1A89        8         0
                stringtext67                       1A81     1A81        8         0
                stringtext66                       1A79     1A79        8         0
                stringtext65                       1A71     1A71        8         0
                stringtext64                       1A69     1A69        8         0
                stringtext63                       1A61     1A61        8         0
                stringtext62                       1A59     1A59        8         0
                stringtext61                       1A51     1A51        8         0
                stringtext60                       1A49     1A49        8         0
                stringtext59                       1A41     1A41        8         0
                stringtext58                       1A39     1A39        8         0
                stringtext57                       1A31     1A31        8         0
                stringtext56                       1A29     1A29        8         0
                stringtext55                       1A21     1A21        8         0
                stringtext54                       1A19     1A19        8         0
                stringtext53                       1A11     1A11        8         0
                stringtext52                       1A09     1A09        8         0
                stringtext51                       1A01     1A01        8         0
                stringtext50                       19F9     19F9        8         0
                stringtext49                       19F1     19F1        8         0
                stringtext48                       19E9     19E9        8         0
                stringtext47                       19E1     19E1        8         0
                stringtext46                       19D9     19D9        8         0
                stringtext45                       19D1     19D1        8         0
                stringtext44                       19C9     19C9        8         0
                stringtext43                       19C1     19C1        8         0
                stringtext42                       19B9     19B9        8         0
                stringtext41                       19B1     19B1        8         0
                stringtext40                       19A9     19A9        8         0
                stringtext39                       19A1     19A1        8         0
                stringtext38                       1999     1999        8         0
                stringtext37                       1991     1991        8         0
                stringtext36                       1989     1989        8         0
                stringtext35                       1981     1981        8         0
                stringtext34                       1979     1979        8         0
                stringtext33                       1971     1971        8         0
                stringtext32                       1969     1969        8         0
                stringtext31                       1961     1961        8         0
                stringtext30                       1959     1959        8         0
                stringtext29                       1951     1951        8         0
                stringtext28                       1949     1949        8         0
                stringtext27                       1941     1941        8         0
                stringtext26                       1939     1939        8         0
                stringtext25                       1931     1931        8         0
                stringtext24                       1929     1929        8         0
                stringtext23                       1921     1921        8         0
                stringtext22                       1919     1919        8         0
                stringtext21                       1911     1911        8         0
                stringtext20                       1909     1909        8         0
                stringtext19                       1901     1901        8         0
                stringtext18                       18F9     18F9        8         0
                stringtext17                       18F1     18F1        8         0
                stringtext16                       18E9     18E9        8         0
                stringtext15                       18E1     18E1        8         0
                stringtext14                       18D9     18D9        8         0
                stringtext13                       18D1     18D1        8         0
                stringtext12                       18C9     18C9        8         0
                stringtext11                       18C1     18C1        8         0
                stringtext10                       18B9     18B9        8         0
                stringtext9                        18B1     18B1        8         0
                stringtext8                        18A9     18A9        8         0
                stringtext7                        18A1     18A1        8         0
                stringtext6                        1899     1899        8         0
                stringtext5                        1891     1891        8         0
                stringtext4                        1889     1889        8         0
                stringtext3                        1881     1881        8         0
                stringtext2                        1879     1879        8         0
                stringtext1                        1851     1851        A         0

        CLASS   STRING         

        CLASS   CONST          

        CLASS   ENTRY          

        CLASS   COMMON         
                cstackCOMMON                         70       70        A         1
                bssCOMMON                            7A       7A        2         1

        CLASS   BANK0          
                cstackBANK0                          20       20       36         1
                dataBANK0                            60       60        4         1
                bssBANK0                             56       56        A         1

        CLASS   BANK1          

        CLASS   BANK2          

        CLASS   BANK3          

        CLASS   BANK4          

        CLASS   BANK5          

        CLASS   BANK6          

        CLASS   BANK7          

        CLASS   BANK8          

        CLASS   BANK9          

        CLASS   BANK10         

        CLASS   BANK11         

        CLASS   BANK12         

        CLASS   BIGRAM         

        CLASS   RAM            

        CLASS   ABS1           
                abs_s1                               7E       7E        2         1

        CLASS   SFR0           

        CLASS   SFR1           

        CLASS   SFR2           

        CLASS   SFR3           

        CLASS   SFR4           

        CLASS   SFR5           

        CLASS   SFR6           

        CLASS   SFR7           

        CLASS   SFR8           

        CLASS   SFR9           

        CLASS   SFR10          

        CLASS   SFR11          

        CLASS   SFR12          

        CLASS   SFR13          

        CLASS   SFR14          

        CLASS   SFR15          

        CLASS   SFR16          

        CLASS   SFR17          

        CLASS   SFR18          

        CLASS   SFR19          

        CLASS   SFR20          

        CLASS   SFR21          

        CLASS   SFR22          

        CLASS   SFR23          

        CLASS   SFR24          

        CLASS   SFR25          

        CLASS   SFR26          

        CLASS   SFR27          

        CLASS   SFR28          

        CLASS   SFR29          

        CLASS   SFR30          

        CLASS   SFR31          

        CLASS   CONFIG         
                config                             8007     8007        2         0

        CLASS   IDLOC          

        CLASS   EEDATA         

        CLASS   BANK31         

        CLASS   BANK30         

        CLASS   BANK29         

        CLASS   BANK28         

        CLASS   BANK27         

        CLASS   BANK26         

        CLASS   BANK25         

        CLASS   BANK24         

        CLASS   BANK23         

        CLASS   BANK22         

        CLASS   BANK21         

        CLASS   BANK20         

        CLASS   BANK19         

        CLASS   BANK18         

        CLASS   BANK17         

        CLASS   BANK16         

        CLASS   BANK15         

        CLASS   BANK14         

        CLASS   BANK13         



SEGMENTS        Name                           Load    Length   Top    Selector   Space  Class     Delta

                reset_vec                      000000  000002  000002         0       0  CODE        2
                intentry                       000004  0007FB  0007FF         8       0  CODE        2
                cstackBANK0                    000020  000044  000064        20       1  BANK0       1
                cstackCOMMON                   000070  00000C  00007C        70       1  COMMON      1
                text46                         000800  00000F  00080F      1000       0  CODE        2
                text4                          00080F  000068  000877      101E       0  CODE        2
                maintext                       000877  00034C  000BC3      10EE       0  CODE        2
                text17                         000BC3  00043D  001000      1786       0  CODE        2
                stringtext242                  001000  000170  001170      2000       0  STRCODE     2
                text34                         001175  000004  001179      22EA       0  CODE        2
                text9                          001179  000004  00117D      22F2       0  CODE        2
                idataBANK0                     00117D  000004  001181      22FA       0  CODE        2
                text44                         001181  000005  001186      2302       0  CODE        2
                text43                         001186  000005  00118B      230C       0  CODE        2
                text42                         00118B  000005  001190      2316       0  CODE        2
                text23                         001190  000006  001196      2320       0  CODE        2
                text22                         001196  000006  00119C      232C       0  CODE        2
                text20                         00119C  000006  0011A2      2338       0  CODE        2
                text16                         0011A2  000006  0011A8      2344       0  CODE        2
                text41                         0011A8  000007  0011AF      2350       0  CODE        2
                text30                         0011AF  000007  0011B6      235E       0  CODE        2
                text49                         0011B6  000008  0011BE      236C       0  CODE        2
                text47                         0011BE  000008  0011C6      237C       0  CODE        2
                text1                          0011C6  000008  0011CE      238C       0  CODE        2
                text27                         0011CE  000009  0011D7      239C       0  CODE        2
                text14                         0011D7  000009  0011E0      23AE       0  CODE        2
                text33                         0011E0  00000C  0011EC      23C0       0  CODE        2
                text15                         0011EC  00000C  0011F8      23D8       0  CODE        2
                text10                         0011F8  00000C  001204      23F0       0  CODE        2
                text25                         001204  00000D  001211      2408       0  CODE        2
                text8                          001211  000011  001222      2422       0  CODE        2
                text35                         001222  000016  001238      2444       0  CODE        2
                text28                         001238  000016  00124E      2470       0  CODE        2
                text12                         00124E  00001A  001268      249C       0  CODE        2
                text45                         001268  00001C  001284      24D0       0  CODE        2
                text2                          001284  00001D  0012A1      2508       0  CODE        2
                text24                         0012A1  000020  0012C1      2542       0  CODE        2
                text26                         0012C1  000021  0012E2      2582       0  CODE        2
                text21                         0012E2  000024  001306      25C4       0  CODE        2
                text31                         001306  00002D  001333      260C       0  CODE        2
                text32                         001333  000034  001367      2666       0  CODE        2
                text13                         001367  000034  00139B      26CE       0  CODE        2
                text39                         00139B  00003B  0013D6      2736       0  CODE        2
                text37                         0013D6  00003F  001415      27AC       0  CODE        2
                text38                         001415  000047  00145C      282A       0  CODE        2
                text18                         00145C  000048  0014A4      28B8       0  CODE        2
                text40                         0014A4  000057  0014FB      2948       0  CODE        2
                text36                         0014FB  00005B  001556      29F6       0  CODE        2
                text5                          001556  000068  0015BE      2AAC       0  CODE        2
                text29                         0015BE  00011D  0016DB      2B7C       0  CODE        2
                text7                          0016DB  000125  001800      2DB6       0  CODE        2
                stringtext288                  001800  0007FF  001FFF      3000       0  STRCODE     2
                config                         008007  000002  008009     1000E       0  CONFIG      2


UNUSED ADDRESS RANGES

        Name                Unused          Largest block    Delta
        BANK0            00064-0006F               C           1
        BANK1            000A0-000EF              50           1
        BANK10           00520-0056F              50           1
        BANK11           005A0-005EF              50           1
        BANK12           00620-0064F              30           1
        BANK2            00120-0016F              50           1
        BANK3            001A0-001EF              50           1
        BANK4            00220-0026F              50           1
        BANK5            002A0-002EF              50           1
        BANK6            00320-0036F              50           1
        BANK7            003A0-003EF              50           1
        BANK8            00420-0046F              50           1
        BANK9            004A0-004EF              50           1
        BIGRAM           02000-023EF             3F0           1
        CODE             00002-00003               2           2
                         007FF-007FF               1
                         01170-01174               5
                         01FFF-01FFF               1
        COMMON           0007C-0007D               2           1
        CONST            00002-00003               2           2
                         007FF-007FF               1
                         01170-01174               5
                         01FFF-01FFF               1
        EEDATA           0F000-0F0FF             100           2
        ENTRY            00002-00003               2           2
                         007FF-007FF               1
                         01170-01174               5
                         01FFF-01FFF               1
        IDLOC            08000-08003               4           2
        RAM              00064-0006F               C           1
                         000A0-000EF              50
                         00120-0016F              50
                         001A0-001EF              50
                         00220-0026F              50
                         002A0-002EF              50
                         00320-0036F              50
                         003A0-003EF              50
                         00420-0046F              50
                         004A0-004EF              50
                         00520-0056F              50
                         005A0-005EF              50
                         00620-0064F              30
        SFR0             00000-0001F              20           1
        SFR1             00080-0009F              20           1
        SFR10            00500-0051F              20           1
        SFR11            00580-0059F              20           1
        SFR12            00600-0061F              20           1
        SFR13            00680-006EF              70           1
        SFR14            00700-0076F              70           1
        SFR15            00780-007EF              70           1
        SFR16            00800-0086F              70           1
        SFR17            00880-008EF              70           1
        SFR18            00900-0096F              70           1
        SFR19            00980-009EF              70           1
        SFR2             00100-0011F              20           1
        SFR20            00A00-00A6F              70           1
        SFR21            00A80-00AEF              70           1
        SFR22            00B00-00B6F              70           1
        SFR23            00B80-00BEF              70           1
        SFR24            00C00-00C6F              70           1
        SFR25            00C80-00CEF              70           1
        SFR26            00D00-00D6F              70           1
        SFR27            00D80-00DEF              70           1
        SFR28            00E00-00E6F              70           1
        SFR29            00E80-00EEF              70           1
        SFR3             00180-0019F              20           1
        SFR30            00F00-00F6F              70           1
        SFR31            00F80-00FEF              70           1
        SFR4             00200-0021F              20           1
        SFR5             00280-0029F              20           1
        SFR6             00300-0031F              20           1
        SFR7             00380-0039F              20           1
        SFR8             00400-0041F              20           1
        SFR9             00480-0049F              20           1
        STACK            02044-023EF             3AC           1
        STRCODE          00002-00003               2           2
                         007FF-007FF               1
                         01170-01174               5
                         01FFF-01FFF               1
        STRING           00002-00003               2           2
                         007FF-007FF               1
                         01170-01174               5
                         01FFF-01FFF               1

                                  Symbol Table

?___lwdiv                    cstackCOMMON  00072
?___lwmod                    cstackBANK0   00020
?__doprnt                    cstackBANK0   00026
?_printf                     cstackBANK0   00033
?_sprintf                    cstackBANK0   00033
I2C_LCD_Busy@Slave           cstackCOMMON  00079
I2C_LCD_Busy@Temp1           cstackCOMMON  00077
I2C_LCD_Busy@read_byte       cstackCOMMON  00078
I2C_LCD_Command@Cmd          cstackBANK0   00020
I2C_LCD_Command@HiBytex      cstackBANK0   00024
I2C_LCD_Command@LoBytex      cstackBANK0   00025
I2C_LCD_Command@Slave        cstackBANK0   00023
I2C_LCD_Init@Slave           cstackBANK0   00022
I2C_LCD_Init@Tvar1           cstackBANK0   00021
I2C_LCD_Pos@HiBytex          cstackBANK0   00024
I2C_LCD_Pos@LoBytex          cstackBANK0   00025
I2C_LCD_Pos@Pos              cstackBANK0   00020
I2C_LCD_Pos@Slave            cstackBANK0   00023
I2C_LCD_SWrite@Data          cstackBANK0   00020
I2C_LCD_SWrite@H             cstackBANK0   00026
I2C_LCD_SWrite@L             cstackBANK0   00027
I2C_LCD_SWrite@Max           cstackBANK0   00021
I2C_LCD_SWrite@Slave         cstackBANK0   00025
I2C_LCD_SWrite@j             cstackBANK0   00028
MAX7219_Write@data           cstackCOMMON  00076
MAX7219_Write@reg            cstackCOMMON  00077
SPI_Write@data               cstackCOMMON  00074
SPI_Write@i                  cstackCOMMON  00075
_ADCON0                      (abs)         0009D
_ADCON1                      (abs)         0009E
_ADGO                        (abs)         004E9
_ADRESH                      (abs)         0009C
_ADRESL                      (abs)         0009B
_ANSELA                      (abs)         0018C
_ANSELB                      (abs)         0018D
_ANSELC                      (abs)         0018E
_BRGH                        (abs)         00CF2
_CPSCON0                     (abs)         0001E
_CPSCON1                     (abs)         0001F
_GIE                         (abs)         0005F
_I2C_LCD_Busy                text40        014A4
_I2C_LCD_Command             text39        0139B
_I2C_LCD_Init                text38        01415
_I2C_LCD_Pos                 text37        013D6
_I2C_LCD_SWrite              text36        014FB
_INTCON                      (abs)         0000B
_LATA2                       (abs)         00862
_LATA5                       (abs)         00865
_LATC6                       (abs)         00876
_LATCbits                    (abs)         0010E
_MAX7219_Write               text25        01204
_OPTION_REG                  (abs)         00095
_OSCCON                      (abs)         00099
_PORTA                       (abs)         0000C
_RB7                         (abs)         0006F
_RCIF                        (abs)         0008D
_RCREG                       (abs)         00199
_RCSTA                       (abs)         0019D
_RXDTSEL                     (abs)         008EF
_SPBRG                       (abs)         0019B
_SPEN                        (abs)         00CEF
_SPI_Write                   text26        012C1
_SSP1ADD                     (abs)         00212
_SSP1BUF                     (abs)         00211
_SSP1CON1                    (abs)         00215
_SSP1CON2                    (abs)         00216
_SSP1CON2bits                (abs)         00216
_SSP1STAT                    (abs)         00214
_SYNC                        (abs)         00CF4
_T1CON                       (abs)         00018
_T1GCON                      (abs)         00019
_TMR0                        (abs)         00015
_TMR0IE                      (abs)         0005D
_TMR0IF                      (abs)         0005A
_TMR1H                       (abs)         00017
_TMR1L                       (abs)         00016
_TMR1ON                      (abs)         000C0
_TRISA                       (abs)         0008C
_TRISB                       (abs)         0008D
_TRISB4                      (abs)         0046C
_TRISB6                      (abs)         0046E
_TRISC                       (abs)         0008E
_TRISC4                      (abs)         00474
_TRISC5                      (abs)         00475
_TXCKSEL                     (abs)         008EA
_TXEN                        (abs)         00CF5
_TXIF                        (abs)         0008C
_TXREG                       (abs)         0019A
_TXSTA                       (abs)         0019E
_Threshold                   dataBANK0     00062
_Touch                       bssBANK0      00056
__CFG_BOREN$ON               (abs)         00000
__CFG_BORV$LO                (abs)         00000
__CFG_CLKOUTEN$OFF           (abs)         00000
__CFG_CP$OFF                 (abs)         00000
__CFG_CPD$OFF                (abs)         00000
__CFG_FCMEN$OFF              (abs)         00000
__CFG_FOSC$INTOSC            (abs)         00000
__CFG_IESO$OFF               (abs)         00000
__CFG_LVP$ON                 (abs)         00000
__CFG_MCLRE$ON               (abs)         00000
__CFG_PLLEN$OFF              (abs)         00000
__CFG_PWRTE$OFF              (abs)         00000
__CFG_STVREN$ON              (abs)         00000
__CFG_WDTE$OFF               (abs)         00000
__CFG_WRT$OFF                (abs)         00000
__Habs1                      abs1          00000
__Hbank0                     bank0         00000
__Hbank1                     bank1         00000
__Hbank10                    bank10        00000
__Hbank11                    bank11        00000
__Hbank12                    bank12        00000
__Hbank13                    bank13        00000
__Hbank14                    bank14        00000
__Hbank15                    bank15        00000
__Hbank16                    bank16        00000
__Hbank17                    bank17        00000
__Hbank18                    bank18        00000
__Hbank19                    bank19        00000
__Hbank2                     bank2         00000
__Hbank20                    bank20        00000
__Hbank21                    bank21        00000
__Hbank22                    bank22        00000
__Hbank23                    bank23        00000
__Hbank24                    bank24        00000
__Hbank25                    bank25        00000
__Hbank26                    bank26        00000
__Hbank27                    bank27        00000
__Hbank28                    bank28        00000
__Hbank29                    bank29        00000
__Hbank3                     bank3         00000
__Hbank30                    bank30        00000
__Hbank31                    bank31        00000
__Hbank4                     bank4         00000
__Hbank5                     bank5         00000
__Hbank6                     bank6         00000
__Hbank7                     bank7         00000
__Hbank8                     bank8         00000
__Hbank9                     bank9         00000
__Hbigram                    bigram        00000
__HbssBANK0                  bssBANK0      00000
__HbssCOMMON                 bssCOMMON     00000
__Hcinit                     cinit         00065
__Hclrtext                   clrtext       00000
__Hcode                      code          00000
__Hcommon                    common        00000
__Hconfig                    config        08009
__HcstackBANK0               cstackBANK0   00000
__HcstackCOMMON              cstackCOMMON  00000
__HdataBANK0                 dataBANK0     00000
__Heeprom_data               eeprom_data   00000
__Hend_init                  end_init      00046
__Hfunctab                   functab       00000
__HidataBANK0                idataBANK0    00000
__Hidloc                     idloc         00000
__Hinit                      init          00044
__Hintentry                  intentry      00044
__Hmaintext                  maintext      00000
__Hpowerup                   powerup       00000
__Hram                       ram           00000
__Hreset_vec                 reset_vec     00002
__Hsfr0                      sfr0          00000
__Hsfr1                      sfr1          00000
__Hsfr10                     sfr10         00000
__Hsfr11                     sfr11         00000
__Hsfr12                     sfr12         00000
__Hsfr13                     sfr13         00000
__Hsfr14                     sfr14         00000
__Hsfr15                     sfr15         00000
__Hsfr16                     sfr16         00000
__Hsfr17                     sfr17         00000
__Hsfr18                     sfr18         00000
__Hsfr19                     sfr19         00000
__Hsfr2                      sfr2          00000
__Hsfr20                     sfr20         00000
__Hsfr21                     sfr21         00000
__Hsfr22                     sfr22         00000
__Hsfr23                     sfr23         00000
__Hsfr24                     sfr24         00000
__Hsfr25                     sfr25         00000
__Hsfr26                     sfr26         00000
__Hsfr27                     sfr27         00000
__Hsfr28                     sfr28         00000
__Hsfr29                     sfr29         00000
__Hsfr3                      sfr3          00000
__Hsfr30                     sfr30         00000
__Hsfr31                     sfr31         00000
__Hsfr4                      sfr4          00000
__Hsfr5                      sfr5          00000
__Hsfr6                      sfr6          00000
__Hsfr7                      sfr7          00000
__Hsfr8                      sfr8          00000
__Hsfr9                      sfr9          00000
__Hspace_0                   (abs)         08009
__Hspace_1                   (abs)         0007C
__Hspace_2                   (abs)         00000
__Hspace_3                   (abs)         00000
__Hstack                     stack         00000
__Hstrings                   strings       00000
__Hstringtext1               stringtext1   00000
__Hstringtext10              stringtext10  00000
__Hstringtext100             stringtext100 00000
__Hstringtext101             stringtext101 00000
__Hstringtext102             stringtext102 00000
__Hstringtext103             stringtext103 00000
__Hstringtext104             stringtext104 00000
__Hstringtext105             stringtext105 00000
__Hstringtext106             stringtext106 00000
__Hstringtext107             stringtext107 00000
__Hstringtext108             stringtext108 00000
__Hstringtext109             stringtext109 00000
__Hstringtext11              stringtext11  00000
__Hstringtext110             stringtext110 00000
__Hstringtext111             stringtext111 00000
__Hstringtext112             stringtext112 00000
__Hstringtext113             stringtext113 00000
__Hstringtext114             stringtext114 00000
__Hstringtext115             stringtext115 00000
__Hstringtext116             stringtext116 00000
__Hstringtext117             stringtext117 00000
__Hstringtext118             stringtext118 00000
__Hstringtext119             stringtext119 00000
__Hstringtext12              stringtext12  00000
__Hstringtext120             stringtext120 00000
__Hstringtext121             stringtext121 00000
__Hstringtext122             stringtext122 00000
__Hstringtext123             stringtext123 00000
__Hstringtext124             stringtext124 00000
__Hstringtext125             stringtext125 00000
__Hstringtext126             stringtext126 00000
__Hstringtext127             stringtext127 00000
__Hstringtext128             stringtext128 00000
__Hstringtext129             stringtext129 00000
__Hstringtext13              stringtext13  00000
__Hstringtext130             stringtext130 00000
__Hstringtext131             stringtext131 00000
__Hstringtext132             stringtext132 00000
__Hstringtext133             stringtext133 00000
__Hstringtext134             stringtext134 00000
__Hstringtext135             stringtext135 00000
__Hstringtext136             stringtext136 00000
__Hstringtext137             stringtext137 00000
__Hstringtext138             stringtext138 00000
__Hstringtext139             stringtext139 00000
__Hstringtext14              stringtext14  00000
__Hstringtext140             stringtext140 00000
__Hstringtext141             stringtext141 00000
__Hstringtext142             stringtext142 00000
__Hstringtext143             stringtext143 00000
__Hstringtext144             stringtext144 00000
__Hstringtext145             stringtext145 00000
__Hstringtext146             stringtext146 00000
__Hstringtext147             stringtext147 00000
__Hstringtext148             stringtext148 00000
__Hstringtext149             stringtext149 00000
__Hstringtext15              stringtext15  00000
__Hstringtext150             stringtext150 00000
__Hstringtext151             stringtext151 00000
__Hstringtext152             stringtext152 00000
__Hstringtext153             stringtext153 00000
__Hstringtext154             stringtext154 00000
__Hstringtext155             stringtext155 00000
__Hstringtext156             stringtext156 00000
__Hstringtext157             stringtext157 00000
__Hstringtext158             stringtext158 00000
__Hstringtext159             stringtext159 00000
__Hstringtext16              stringtext16  00000
__Hstringtext160             stringtext160 00000
__Hstringtext161             stringtext161 00000
__Hstringtext162             stringtext162 00000
__Hstringtext163             stringtext163 00000
__Hstringtext164             stringtext164 00000
__Hstringtext165             stringtext165 00000
__Hstringtext166             stringtext166 00000
__Hstringtext167             stringtext167 00000
__Hstringtext168             stringtext168 00000
__Hstringtext169             stringtext169 00000
__Hstringtext17              stringtext17  00000
__Hstringtext170             stringtext170 00000
__Hstringtext171             stringtext171 00000
__Hstringtext172             stringtext172 00000
__Hstringtext173             stringtext173 00000
__Hstringtext174             stringtext174 00000
__Hstringtext175             stringtext175 00000
__Hstringtext176             stringtext176 00000
__Hstringtext177             stringtext177 00000
__Hstringtext178             stringtext178 00000
__Hstringtext179             stringtext179 00000
__Hstringtext18              stringtext18  00000
__Hstringtext180             stringtext180 00000
__Hstringtext181             stringtext181 00000
__Hstringtext182             stringtext182 00000
__Hstringtext183             stringtext183 00000
__Hstringtext184             stringtext184 00000
__Hstringtext185             stringtext185 00000
__Hstringtext186             stringtext186 00000
__Hstringtext187             stringtext187 00000
__Hstringtext188             stringtext188 00000
__Hstringtext189             stringtext189 00000
__Hstringtext19              stringtext19  00000
__Hstringtext190             stringtext190 00000
__Hstringtext191             stringtext191 00000
__Hstringtext192             stringtext192 00000
__Hstringtext193             stringtext193 00000
__Hstringtext194             stringtext194 00000
__Hstringtext195             stringtext195 00000
__Hstringtext196             stringtext196 00000
__Hstringtext197             stringtext197 00000
__Hstringtext198             stringtext198 00000
__Hstringtext199             stringtext199 00000
__Hstringtext2               stringtext2   00000
__Hstringtext20              stringtext20  00000
__Hstringtext200             stringtext200 00000
__Hstringtext201             stringtext201 00000
__Hstringtext202             stringtext202 00000
__Hstringtext203             stringtext203 00000
__Hstringtext204             stringtext204 00000
__Hstringtext205             stringtext205 00000
__Hstringtext206             stringtext206 00000
__Hstringtext207             stringtext207 00000
__Hstringtext208             stringtext208 00000
__Hstringtext209             stringtext209 00000
__Hstringtext21              stringtext21  00000
__Hstringtext210             stringtext210 00000
__Hstringtext211             stringtext211 00000
__Hstringtext212             stringtext212 00000
__Hstringtext213             stringtext213 00000
__Hstringtext214             stringtext214 00000
__Hstringtext215             stringtext215 00000
__Hstringtext216             stringtext216 00000
__Hstringtext217             stringtext217 00000
__Hstringtext218             stringtext218 00000
__Hstringtext219             stringtext219 00000
__Hstringtext22              stringtext22  00000
__Hstringtext220             stringtext220 00000
__Hstringtext221             stringtext221 00000
__Hstringtext222             stringtext222 00000
__Hstringtext223             stringtext223 00000
__Hstringtext224             stringtext224 00000
__Hstringtext225             stringtext225 00000
__Hstringtext226             stringtext226 00000
__Hstringtext227             stringtext227 00000
__Hstringtext228             stringtext228 00000
__Hstringtext229             stringtext229 00000
__Hstringtext23              stringtext23  00000
__Hstringtext230             stringtext230 00000
__Hstringtext231             stringtext231 00000
__Hstringtext232             stringtext232 00000
__Hstringtext233             stringtext233 00000
__Hstringtext234             stringtext234 00000
__Hstringtext235             stringtext235 00000
__Hstringtext236             stringtext236 00000
__Hstringtext237             stringtext237 00000
__Hstringtext238             stringtext238 00000
__Hstringtext239             stringtext239 00000
__Hstringtext24              stringtext24  00000
__Hstringtext240             stringtext240 00000
__Hstringtext241             stringtext241 00000
__Hstringtext242             stringtext242 00000
__Hstringtext243             stringtext243 00000
__Hstringtext244             stringtext244 00000
__Hstringtext245             stringtext245 00000
__Hstringtext246             stringtext246 00000
__Hstringtext247             stringtext247 00000
__Hstringtext248             stringtext248 00000
__Hstringtext249             stringtext249 00000
__Hstringtext25              stringtext25  00000
__Hstringtext250             stringtext250 00000
__Hstringtext251             stringtext251 00000
__Hstringtext252             stringtext252 00000
__Hstringtext253             stringtext253 00000
__Hstringtext254             stringtext254 00000
__Hstringtext255             stringtext255 00000
__Hstringtext256             stringtext256 00000
__Hstringtext257             stringtext257 00000
__Hstringtext258             stringtext258 00000
__Hstringtext259             stringtext259 00000
__Hstringtext26              stringtext26  00000
__Hstringtext260             stringtext260 00000
__Hstringtext261             stringtext261 00000
__Hstringtext262             stringtext262 00000
__Hstringtext263             stringtext263 00000
__Hstringtext264             stringtext264 00000
__Hstringtext265             stringtext265 00000
__Hstringtext266             stringtext266 00000
__Hstringtext267             stringtext267 00000
__Hstringtext268             stringtext268 00000
__Hstringtext269             stringtext269 00000
__Hstringtext27              stringtext27  00000
__Hstringtext270             stringtext270 00000
__Hstringtext271             stringtext271 00000
__Hstringtext272             stringtext272 00000
__Hstringtext273             stringtext273 00000
__Hstringtext274             stringtext274 00000
__Hstringtext275             stringtext275 00000
__Hstringtext276             stringtext276 00000
__Hstringtext277             stringtext277 00000
__Hstringtext278             stringtext278 00000
__Hstringtext279             stringtext279 00000
__Hstringtext28              stringtext28  00000
__Hstringtext280             stringtext280 00000
__Hstringtext281             stringtext281 00000
__Hstringtext282             stringtext282 00000
__Hstringtext283             stringtext283 00000
__Hstringtext284             stringtext284 00000
__Hstringtext285             stringtext285 00000
__Hstringtext286             stringtext286 00000
__Hstringtext287             stringtext287 00000
__Hstringtext288             stringtext288 00000
__Hstringtext289             stringtext289 00000
__Hstringtext29              stringtext29  00000
__Hstringtext290             stringtext290 00000
__Hstringtext291             stringtext291 00000
__Hstringtext292             stringtext292 00000
__Hstringtext293             stringtext293 00000
__Hstringtext294             stringtext294 00000
__Hstringtext295             stringtext295 00000
__Hstringtext296             stringtext296 00000
__Hstringtext297             stringtext297 00000
__Hstringtext298             stringtext298 00000
__Hstringtext299             stringtext299 00000
__Hstringtext3               stringtext3   00000
__Hstringtext30              stringtext30  00000
__Hstringtext31              stringtext31  00000
__Hstringtext32              stringtext32  00000
__Hstringtext33              stringtext33  00000
__Hstringtext34              stringtext34  00000
__Hstringtext35              stringtext35  00000
__Hstringtext36              stringtext36  00000
__Hstringtext37              stringtext37  00000
__Hstringtext38              stringtext38  00000
__Hstringtext39              stringtext39  00000
__Hstringtext4               stringtext4   00000
__Hstringtext40              stringtext40  00000
__Hstringtext41              stringtext41  00000
__Hstringtext42              stringtext42  00000
__Hstringtext43              stringtext43  00000
__Hstringtext44              stringtext44  00000
__Hstringtext45              stringtext45  00000
__Hstringtext46              stringtext46  00000
__Hstringtext47              stringtext47  00000
__Hstringtext48              stringtext48  00000
__Hstringtext49              stringtext49  00000
__Hstringtext5               stringtext5   00000
__Hstringtext50              stringtext50  00000
__Hstringtext51              stringtext51  00000
__Hstringtext52              stringtext52  00000
__Hstringtext53              stringtext53  00000
__Hstringtext54              stringtext54  00000
__Hstringtext55              stringtext55  00000
__Hstringtext56              stringtext56  00000
__Hstringtext57              stringtext57  00000
__Hstringtext58              stringtext58  00000
__Hstringtext59              stringtext59  00000
__Hstringtext6               stringtext6   00000
__Hstringtext60              stringtext60  00000
__Hstringtext61              stringtext61  00000
__Hstringtext62              stringtext62  00000
__Hstringtext63              stringtext63  00000
__Hstringtext64              stringtext64  00000
__Hstringtext65              stringtext65  00000
__Hstringtext66              stringtext66  00000
__Hstringtext67              stringtext67  00000
__Hstringtext68              stringtext68  00000
__Hstringtext69              stringtext69  00000
__Hstringtext7               stringtext7   00000
__Hstringtext70              stringtext70  00000
__Hstringtext71              stringtext71  00000
__Hstringtext72              stringtext72  00000
__Hstringtext73              stringtext73  00000
__Hstringtext74              stringtext74  00000
__Hstringtext75              stringtext75  00000
__Hstringtext76              stringtext76  00000
__Hstringtext77              stringtext77  00000
__Hstringtext78              stringtext78  00000
__Hstringtext79              stringtext79  00000
__Hstringtext8               stringtext8   00000
__Hstringtext80              stringtext80  00000
__Hstringtext81              stringtext81  00000
__Hstringtext82              stringtext82  00000
__Hstringtext83              stringtext83  00000
__Hstringtext84              stringtext84  00000
__Hstringtext85              stringtext85  00000
__Hstringtext86              stringtext86  00000
__Hstringtext87              stringtext87  00000
__Hstringtext88              stringtext88  00000
__Hstringtext89              stringtext89  00000
__Hstringtext9               stringtext9   00000
__Hstringtext90              stringtext90  00000
__Hstringtext91              stringtext91  00000
__Hstringtext92              stringtext92  00000
__Hstringtext93              stringtext93  00000
__Hstringtext94              stringtext94  00000
__Hstringtext95              stringtext95  00000
__Hstringtext96              stringtext96  00000
__Hstringtext97              stringtext97  00000
__Hstringtext98              stringtext98  00000
__Hstringtext99              stringtext99  00000
__Htext                      text          00000
__Labs1                      abs1          00000
__Lbank0                     bank0         00000
__Lbank1                     bank1         00000
__Lbank10                    bank10        00000
__Lbank11                    bank11        00000
__Lbank12                    bank12        00000
__Lbank13                    bank13        00000
__Lbank14                    bank14        00000
__Lbank15                    bank15        00000
__Lbank16                    bank16        00000
__Lbank17                    bank17        00000
__Lbank18                    bank18        00000
__Lbank19                    bank19        00000
__Lbank2                     bank2         00000
__Lbank20                    bank20        00000
__Lbank21                    bank21        00000
__Lbank22                    bank22        00000
__Lbank23                    bank23        00000
__Lbank24                    bank24        00000
__Lbank25                    bank25        00000
__Lbank26                    bank26        00000
__Lbank27                    bank27        00000
__Lbank28                    bank28        00000
__Lbank29                    bank29        00000
__Lbank3                     bank3         00000
__Lbank30                    bank30        00000
__Lbank31                    bank31        00000
__Lbank4                     bank4         00000
__Lbank5                     bank5         00000
__Lbank6                     bank6         00000
__Lbank7                     bank7         00000
__Lbank8                     bank8         00000
__Lbank9                     bank9         00000
__Lbigram                    bigram        00000
__LbssBANK0                  bssBANK0      00000
__LbssCOMMON                 bssCOMMON     00000
__Lcinit                     cinit         00046
__Lclrtext                   clrtext       00000
__Lcode                      code          00000
__Lcommon                    common        00000
__Lconfig                    config        08007
__LcstackBANK0               cstackBANK0   00000
__LcstackCOMMON              cstackCOMMON  00000
__LdataBANK0                 dataBANK0     00000
__Leeprom_data               eeprom_data   00000
__Lend_init                  end_init      00044
__Lfunctab                   functab       00000
__LidataBANK0                idataBANK0    00000
__Lidloc                     idloc         00000
__Linit                      init          00044
__Lintentry                  intentry      00004
__Lmaintext                  maintext      00000
__Lpowerup                   powerup       00000
__Lram                       ram           00000
__Lreset_vec                 reset_vec     00000
__Lsfr0                      sfr0          00000
__Lsfr1                      sfr1          00000
__Lsfr10                     sfr10         00000
__Lsfr11                     sfr11         00000
__Lsfr12                     sfr12         00000
__Lsfr13                     sfr13         00000
__Lsfr14                     sfr14         00000
__Lsfr15                     sfr15         00000
__Lsfr16                     sfr16         00000
__Lsfr17                     sfr17         00000
__Lsfr18                     sfr18         00000
__Lsfr19                     sfr19         00000
__Lsfr2                      sfr2          00000
__Lsfr20                     sfr20         00000
__Lsfr21                     sfr21         00000
__Lsfr22                     sfr22         00000
__Lsfr23                     sfr23         00000
__Lsfr24                     sfr24         00000
__Lsfr25                     sfr25         00000
__Lsfr26                     sfr26         00000
__Lsfr27                     sfr27         00000
__Lsfr28                     sfr28         00000
__Lsfr29                     sfr29         00000
__Lsfr3                      sfr3          00000
__Lsfr30                     sfr30         00000
__Lsfr31                     sfr31         00000
__Lsfr4                      sfr4          00000
__Lsfr5                      sfr5          00000
__Lsfr6                      sfr6          00000
__Lsfr7                      sfr7          00000
__Lsfr8                      sfr8          00000
__Lsfr9                      sfr9          00000
__Lspace_0                   (abs)         00000
__Lspace_1                   (abs)         00000
__Lspace_2                   (abs)         00000
__Lspace_3                   (abs)         00000
__Lstack                     stack         00000
__Lstrings                   strings       00000
__Lstringtext1               stringtext1   00000
__Lstringtext10              stringtext10  00000
__Lstringtext100             stringtext100 00000
__Lstringtext101             stringtext101 00000
__Lstringtext102             stringtext102 00000
__Lstringtext103             stringtext103 00000
__Lstringtext104             stringtext104 00000
__Lstringtext105             stringtext105 00000
__Lstringtext106             stringtext106 00000
__Lstringtext107             stringtext107 00000
__Lstringtext108             stringtext108 00000
__Lstringtext109             stringtext109 00000
__Lstringtext11              stringtext11  00000
__Lstringtext110             stringtext110 00000
__Lstringtext111             stringtext111 00000
__Lstringtext112             stringtext112 00000
__Lstringtext113             stringtext113 00000
__Lstringtext114             stringtext114 00000
__Lstringtext115             stringtext115 00000
__Lstringtext116             stringtext116 00000
__Lstringtext117             stringtext117 00000
__Lstringtext118             stringtext118 00000
__Lstringtext119             stringtext119 00000
__Lstringtext12              stringtext12  00000
__Lstringtext120             stringtext120 00000
__Lstringtext121             stringtext121 00000
__Lstringtext122             stringtext122 00000
__Lstringtext123             stringtext123 00000
__Lstringtext124             stringtext124 00000
__Lstringtext125             stringtext125 00000
__Lstringtext126             stringtext126 00000
__Lstringtext127             stringtext127 00000
__Lstringtext128             stringtext128 00000
__Lstringtext129             stringtext129 00000
__Lstringtext13              stringtext13  00000
__Lstringtext130             stringtext130 00000
__Lstringtext131             stringtext131 00000
__Lstringtext132             stringtext132 00000
__Lstringtext133             stringtext133 00000
__Lstringtext134             stringtext134 00000
__Lstringtext135             stringtext135 00000
__Lstringtext136             stringtext136 00000
__Lstringtext137             stringtext137 00000
__Lstringtext138             stringtext138 00000
__Lstringtext139             stringtext139 00000
__Lstringtext14              stringtext14  00000
__Lstringtext140             stringtext140 00000
__Lstringtext141             stringtext141 00000
__Lstringtext142             stringtext142 00000
__Lstringtext143             stringtext143 00000
__Lstringtext144             stringtext144 00000
__Lstringtext145             stringtext145 00000
__Lstringtext146             stringtext146 00000
__Lstringtext147             stringtext147 00000
__Lstringtext148             stringtext148 00000
__Lstringtext149             stringtext149 00000
__Lstringtext15              stringtext15  00000
__Lstringtext150             stringtext150 00000
__Lstringtext151             stringtext151 00000
__Lstringtext152             stringtext152 00000
__Lstringtext153             stringtext153 00000
__Lstringtext154             stringtext154 00000
__Lstringtext155             stringtext155 00000
__Lstringtext156             stringtext156 00000
__Lstringtext157             stringtext157 00000
__Lstringtext158             stringtext158 00000
__Lstringtext159             stringtext159 00000
__Lstringtext16              stringtext16  00000
__Lstringtext160             stringtext160 00000
__Lstringtext161             stringtext161 00000
__Lstringtext162             stringtext162 00000
__Lstringtext163             stringtext163 00000
__Lstringtext164             stringtext164 00000
__Lstringtext165             stringtext165 00000
__Lstringtext166             stringtext166 00000
__Lstringtext167             stringtext167 00000
__Lstringtext168             stringtext168 00000
__Lstringtext169             stringtext169 00000
__Lstringtext17              stringtext17  00000
__Lstringtext170             stringtext170 00000
__Lstringtext171             stringtext171 00000
__Lstringtext172             stringtext172 00000
__Lstringtext173             stringtext173 00000
__Lstringtext174             stringtext174 00000
__Lstringtext175             stringtext175 00000
__Lstringtext176             stringtext176 00000
__Lstringtext177             stringtext177 00000
__Lstringtext178             stringtext178 00000
__Lstringtext179             stringtext179 00000
__Lstringtext18              stringtext18  00000
__Lstringtext180             stringtext180 00000
__Lstringtext181             stringtext181 00000
__Lstringtext182             stringtext182 00000
__Lstringtext183             stringtext183 00000
__Lstringtext184             stringtext184 00000
__Lstringtext185             stringtext185 00000
__Lstringtext186             stringtext186 00000
__Lstringtext187             stringtext187 00000
__Lstringtext188             stringtext188 00000
__Lstringtext189             stringtext189 00000
__Lstringtext19              stringtext19  00000
__Lstringtext190             stringtext190 00000
__Lstringtext191             stringtext191 00000
__Lstringtext192             stringtext192 00000
__Lstringtext193             stringtext193 00000
__Lstringtext194             stringtext194 00000
__Lstringtext195             stringtext195 00000
__Lstringtext196             stringtext196 00000
__Lstringtext197             stringtext197 00000
__Lstringtext198             stringtext198 00000
__Lstringtext199             stringtext199 00000
__Lstringtext2               stringtext2   00000
__Lstringtext20              stringtext20  00000
__Lstringtext200             stringtext200 00000
__Lstringtext201             stringtext201 00000
__Lstringtext202             stringtext202 00000
__Lstringtext203             stringtext203 00000
__Lstringtext204             stringtext204 00000
__Lstringtext205             stringtext205 00000
__Lstringtext206             stringtext206 00000
__Lstringtext207             stringtext207 00000
__Lstringtext208             stringtext208 00000
__Lstringtext209             stringtext209 00000
__Lstringtext21              stringtext21  00000
__Lstringtext210             stringtext210 00000
__Lstringtext211             stringtext211 00000
__Lstringtext212             stringtext212 00000
__Lstringtext213             stringtext213 00000
__Lstringtext214             stringtext214 00000
__Lstringtext215             stringtext215 00000
__Lstringtext216             stringtext216 00000
__Lstringtext217             stringtext217 00000
__Lstringtext218             stringtext218 00000
__Lstringtext219             stringtext219 00000
__Lstringtext22              stringtext22  00000
__Lstringtext220             stringtext220 00000
__Lstringtext221             stringtext221 00000
__Lstringtext222             stringtext222 00000
__Lstringtext223             stringtext223 00000
__Lstringtext224             stringtext224 00000
__Lstringtext225             stringtext225 00000
__Lstringtext226             stringtext226 00000
__Lstringtext227             stringtext227 00000
__Lstringtext228             stringtext228 00000
__Lstringtext229             stringtext229 00000
__Lstringtext23              stringtext23  00000
__Lstringtext230             stringtext230 00000
__Lstringtext231             stringtext231 00000
__Lstringtext232             stringtext232 00000
__Lstringtext233             stringtext233 00000
__Lstringtext234             stringtext234 00000
__Lstringtext235             stringtext235 00000
__Lstringtext236             stringtext236 00000
__Lstringtext237             stringtext237 00000
__Lstringtext238             stringtext238 00000
__Lstringtext239             stringtext239 00000
__Lstringtext24              stringtext24  00000
__Lstringtext240             stringtext240 00000
__Lstringtext241             stringtext241 00000
__Lstringtext242             stringtext242 00000
__Lstringtext243             stringtext243 00000
__Lstringtext244             stringtext244 00000
__Lstringtext245             stringtext245 00000
__Lstringtext246             stringtext246 00000
__Lstringtext247             stringtext247 00000
__Lstringtext248             stringtext248 00000
__Lstringtext249             stringtext249 00000
__Lstringtext25              stringtext25  00000
__Lstringtext250             stringtext250 00000
__Lstringtext251             stringtext251 00000
__Lstringtext252             stringtext252 00000
__Lstringtext253             stringtext253 00000
__Lstringtext254             stringtext254 00000
__Lstringtext255             stringtext255 00000
__Lstringtext256             stringtext256 00000
__Lstringtext257             stringtext257 00000
__Lstringtext258             stringtext258 00000
__Lstringtext259             stringtext259 00000
__Lstringtext26              stringtext26  00000
__Lstringtext260             stringtext260 00000
__Lstringtext261             stringtext261 00000
__Lstringtext262             stringtext262 00000
__Lstringtext263             stringtext263 00000
__Lstringtext264             stringtext264 00000
__Lstringtext265             stringtext265 00000
__Lstringtext266             stringtext266 00000
__Lstringtext267             stringtext267 00000
__Lstringtext268             stringtext268 00000
__Lstringtext269             stringtext269 00000
__Lstringtext27              stringtext27  00000
__Lstringtext270             stringtext270 00000
__Lstringtext271             stringtext271 00000
__Lstringtext272             stringtext272 00000
__Lstringtext273             stringtext273 00000
__Lstringtext274             stringtext274 00000
__Lstringtext275             stringtext275 00000
__Lstringtext276             stringtext276 00000
__Lstringtext277             stringtext277 00000
__Lstringtext278             stringtext278 00000
__Lstringtext279             stringtext279 00000
__Lstringtext28              stringtext28  00000
__Lstringtext280             stringtext280 00000
__Lstringtext281             stringtext281 00000
__Lstringtext282             stringtext282 00000
__Lstringtext283             stringtext283 00000
__Lstringtext284             stringtext284 00000
__Lstringtext285             stringtext285 00000
__Lstringtext286             stringtext286 00000
__Lstringtext287             stringtext287 00000
__Lstringtext288             stringtext288 00000
__Lstringtext289             stringtext289 00000
__Lstringtext29              stringtext29  00000
__Lstringtext290             stringtext290 00000
__Lstringtext291             stringtext291 00000
__Lstringtext292             stringtext292 00000
__Lstringtext293             stringtext293 00000
__Lstringtext294             stringtext294 00000
__Lstringtext295             stringtext295 00000
__Lstringtext296             stringtext296 00000
__Lstringtext297             stringtext297 00000
__Lstringtext298             stringtext298 00000
__Lstringtext299             stringtext299 00000
__Lstringtext3               stringtext3   00000
__Lstringtext30              stringtext30  00000
__Lstringtext31              stringtext31  00000
__Lstringtext32              stringtext32  00000
__Lstringtext33              stringtext33  00000
__Lstringtext34              stringtext34  00000
__Lstringtext35              stringtext35  00000
__Lstringtext36              stringtext36  00000
__Lstringtext37              stringtext37  00000
__Lstringtext38              stringtext38  00000
__Lstringtext39              stringtext39  00000
__Lstringtext4               stringtext4   00000
__Lstringtext40              stringtext40  00000
__Lstringtext41              stringtext41  00000
__Lstringtext42              stringtext42  00000
__Lstringtext43              stringtext43  00000
__Lstringtext44              stringtext44  00000
__Lstringtext45              stringtext45  00000
__Lstringtext46              stringtext46  00000
__Lstringtext47              stringtext47  00000
__Lstringtext48              stringtext48  00000
__Lstringtext49              stringtext49  00000
__Lstringtext5               stringtext5   00000
__Lstringtext50              stringtext50  00000
__Lstringtext51              stringtext51  00000
__Lstringtext52              stringtext52  00000
__Lstringtext53              stringtext53  00000
__Lstringtext54              stringtext54  00000
__Lstringtext55              stringtext55  00000
__Lstringtext56              stringtext56  00000
__Lstringtext57              stringtext57  00000
__Lstringtext58              stringtext58  00000
__Lstringtext59              stringtext59  00000
__Lstringtext6               stringtext6   00000
__Lstringtext60              stringtext60  00000
__Lstringtext61              stringtext61  00000
__Lstringtext62              stringtext62  00000
__Lstringtext63              stringtext63  00000
__Lstringtext64              stringtext64  00000
__Lstringtext65              stringtext65  00000
__Lstringtext66              stringtext66  00000
__Lstringtext67              stringtext67  00000
__Lstringtext68              stringtext68  00000
__Lstringtext69              stringtext69  00000
__Lstringtext7               stringtext7   00000
__Lstringtext70              stringtext70  00000
__Lstringtext71              stringtext71  00000
__Lstringtext72              stringtext72  00000
__Lstringtext73              stringtext73  00000
__Lstringtext74              stringtext74  00000
__Lstringtext75              stringtext75  00000
__Lstringtext76              stringtext76  00000
__Lstringtext77              stringtext77  00000
__Lstringtext78              stringtext78  00000
__Lstringtext79              stringtext79  00000
__Lstringtext8               stringtext8   00000
__Lstringtext80              stringtext80  00000
__Lstringtext81              stringtext81  00000
__Lstringtext82              stringtext82  00000
__Lstringtext83              stringtext83  00000
__Lstringtext84              stringtext84  00000
__Lstringtext85              stringtext85  00000
__Lstringtext86              stringtext86  00000
__Lstringtext87              stringtext87  00000
__Lstringtext88              stringtext88  00000
__Lstringtext89              stringtext89  00000
__Lstringtext9               stringtext9   00000
__Lstringtext90              stringtext90  00000
__Lstringtext91              stringtext91  00000
__Lstringtext92              stringtext92  00000
__Lstringtext93              stringtext93  00000
__Lstringtext94              stringtext94  00000
__Lstringtext95              stringtext95  00000
__Lstringtext96              stringtext96  00000
__Lstringtext97              stringtext97  00000
__Lstringtext98              stringtext98  00000
__Lstringtext99              stringtext99  00000
__Ltext                      text          00000
__S0                         (abs)         08009
__S1                         (abs)         0007C
__S2                         (abs)         00000
__S3                         (abs)         00000
___int_sp                    stack         00000
___latbits                   (abs)         00002
___lwdiv                     text32        01333
___lwdiv@counter             cstackCOMMON  00079
___lwdiv@dividend            cstackCOMMON  00074
___lwdiv@divisor             cstackCOMMON  00072
___lwdiv@quotient            cstackCOMMON  00077
___lwmod                     text31        01306
___lwmod@counter             cstackBANK0   00025
___lwmod@dividend            cstackBANK0   00022
___lwmod@divisor             cstackBANK0   00020
___sp                        stack         00000
__doprnt                     text29        015BE
__doprnt@ap                  cstackBANK0   00028
__doprnt@c                   cstackBANK0   00031
__doprnt@f                   cstackBANK0   00026
__doprnt@flag                cstackBANK0   0002D
__doprnt@pb                  cstackBANK0   00032
__doprnt@prec                cstackBANK0   0002E
__doprnt@val                 cstackBANK0   0002F
__end_of_I2C_LCD_Busy        text40        014FB
__end_of_I2C_LCD_Command     text39        013D6
__end_of_I2C_LCD_Init        text38        0145C
__end_of_I2C_LCD_Pos         text37        01415
__end_of_I2C_LCD_SWrite      text36        01556
__end_of_MAX7219_Write       text25        01211
__end_of_SPI_Write           text26        012E2
__end_of___lwdiv             text32        01367
__end_of___lwmod             text31        01333
__end_of__doprnt             text29        016DB
__end_of__initialization     cinit         00061
__end_of_bluenote            text16        011A8
__end_of_clockAndpin_config  text35        01238
__end_of_delay1              text15        011F8
__end_of_delay2              text27        011D7
__end_of_delay3              text14        011E0
__end_of_display             text24        012C1
__end_of_dpowers             stringtext1   0185B
__end_of_emptynote           text23        01196
__end_of_everlong            text17        01000
__end_of_everyother          text13        0139B
__end_of_everyother1         stringtext102 01BA1
__end_of_everyother2         stringtext101 01B99
__end_of_everyother3         stringtext100 01B91
__end_of_everyother4         stringtext99  01B89
__end_of_get_Touch           intentry      00044
__end_of_green1              stringtext285 01160
__end_of_green10             stringtext276 01118
__end_of_green11             stringtext275 01110
__end_of_green12             stringtext274 01108
__end_of_green13             stringtext273 01100
__end_of_green14             stringtext272 010F8
__end_of_green15             stringtext271 010F0
__end_of_green16             stringtext270 010E8
__end_of_green17             stringtext269 010E0
__end_of_green18             stringtext268 010D8
__end_of_green19             stringtext267 010D0
__end_of_green1_1            stringtext288 01808
__end_of_green1_2            stringtext287 01170
__end_of_green1_3            stringtext286 01168
__end_of_green2              stringtext284 01158
__end_of_green20             stringtext266 010C8
__end_of_green21             stringtext265 010C0
__end_of_green22             stringtext264 010B8
__end_of_green23             stringtext263 010B0
__end_of_green24             stringtext262 010A8
__end_of_green25             stringtext261 010A0
__end_of_green26             stringtext260 01098
__end_of_green27             stringtext259 01090
__end_of_green28             stringtext258 01088
__end_of_green29             stringtext257 01080
__end_of_green3              stringtext283 01150
__end_of_green30             stringtext256 01078
__end_of_green31             stringtext255 01070
__end_of_green32             stringtext254 01068
__end_of_green33             stringtext253 01060
__end_of_green34             stringtext252 01058
__end_of_green35             stringtext251 01050
__end_of_green36             stringtext250 01048
__end_of_green37             stringtext249 01040
__end_of_green38             stringtext248 01038
__end_of_green39             stringtext247 01030
__end_of_green4              stringtext282 01148
__end_of_green40             stringtext246 01028
__end_of_green41             stringtext245 01020
__end_of_green42             stringtext244 01018
__end_of_green43             stringtext243 01010
__end_of_green44             stringtext242 01008
__end_of_green45             stringtext241 01FF9
__end_of_green46             stringtext240 01FF1
__end_of_green47             stringtext239 01FE9
__end_of_green48             stringtext238 01FE1
__end_of_green49             stringtext237 01FD9
__end_of_green5              stringtext281 01140
__end_of_green50             stringtext236 01FD1
__end_of_green51             stringtext235 01FC9
__end_of_green52             stringtext234 01FC1
__end_of_green6              stringtext280 01138
__end_of_green7              stringtext279 01130
__end_of_green8              stringtext278 01128
__end_of_green9              stringtext277 01120
__end_of_greenbegins         text7         01800
__end_of_greennote           text34        01179
__end_of_greenrepeat         text6         007CE
__end_of_heaviest            text11        0055D
__end_of_i2c_Address         text46        0080F
__end_of_i2c_Init            text10        01204
__end_of_i2c_Read            text45        01284
__end_of_i2c_Restart         text44        01186
__end_of_i2c_Start           text43        0118B
__end_of_i2c_Stop            text42        01190
__end_of_i2c_Wait            text47        011C6
__end_of_i2c_Write           text41        011AF
__end_of_init8x8             text33        011EC
__end_of_main                maintext      00BC3
__end_of_mainriff            text5         015BE
__end_of_mainriffends        text4         00877
__end_of_note1               stringtext187 01E49
__end_of_note10              stringtext178 01E01
__end_of_note11              stringtext177 01DF9
__end_of_note12              stringtext176 01DF1
__end_of_note13              stringtext175 01DE9
__end_of_note14              stringtext174 01DE1
__end_of_note15              stringtext173 01DD9
__end_of_note16              stringtext172 01DD1
__end_of_note17              stringtext171 01DC9
__end_of_note18              stringtext170 01DC1
__end_of_note19              stringtext169 01DB9
__end_of_note2               stringtext186 01E41
__end_of_note20              stringtext168 01DB1
__end_of_note21              stringtext167 01DA9
__end_of_note22              stringtext166 01DA1
__end_of_note23              stringtext165 01D99
__end_of_note24              stringtext164 01D91
__end_of_note25              stringtext163 01D89
__end_of_note26              stringtext162 01D81
__end_of_note27              stringtext161 01D79
__end_of_note28              stringtext160 01D71
__end_of_note29              stringtext159 01D69
__end_of_note3               stringtext185 01E39
__end_of_note30              stringtext158 01D61
__end_of_note31              stringtext157 01D59
__end_of_note32              stringtext156 01D51
__end_of_note33              stringtext155 01D49
__end_of_note34              stringtext154 01D41
__end_of_note35              stringtext153 01D39
__end_of_note36              stringtext152 01D31
__end_of_note37              stringtext151 01D29
__end_of_note38              stringtext150 01D21
__end_of_note39              stringtext149 01D19
__end_of_note4               stringtext184 01E31
__end_of_note40              stringtext148 01D11
__end_of_note41              stringtext147 01D09
__end_of_note42              stringtext146 01D01
__end_of_note43              stringtext145 01CF9
__end_of_note44              stringtext144 01CF1
__end_of_note45              stringtext143 01CE9
__end_of_note46              stringtext142 01CE1
__end_of_note47              stringtext141 01CD9
__end_of_note48              stringtext140 01CD1
__end_of_note49              stringtext139 01CC9
__end_of_note5               stringtext183 01E29
__end_of_note50              stringtext138 01CC1
__end_of_note51              stringtext137 01CB9
__end_of_note52              stringtext136 01CB1
__end_of_note53              stringtext135 01CA9
__end_of_note54              stringtext134 01CA1
__end_of_note55              stringtext133 01C99
__end_of_note56              stringtext132 01C91
__end_of_note57              stringtext131 01C89
__end_of_note58              stringtext130 01C81
__end_of_note59              stringtext129 01C79
__end_of_note6               stringtext182 01E21
__end_of_note60              stringtext128 01C71
__end_of_note61              stringtext127 01C69
__end_of_note62              stringtext126 01C61
__end_of_note63              stringtext125 01C59
__end_of_note64              stringtext124 01C51
__end_of_note65              stringtext123 01C49
__end_of_note66              stringtext122 01C41
__end_of_note67              stringtext121 01C39
__end_of_note68              stringtext120 01C31
__end_of_note69              stringtext119 01C29
__end_of_note7               stringtext181 01E19
__end_of_note70              stringtext118 01C21
__end_of_note71              stringtext117 01C19
__end_of_note72              stringtext116 01C11
__end_of_note73              stringtext115 01C09
__end_of_note74              stringtext114 01C01
__end_of_note75              stringtext113 01BF9
__end_of_note76              stringtext112 01BF1
__end_of_note77              stringtext111 01BE9
__end_of_note78              stringtext110 01BE1
__end_of_note79              stringtext109 01BD9
__end_of_note8               stringtext180 01E11
__end_of_note80              stringtext108 01BD1
__end_of_note81              stringtext107 01BC9
__end_of_note82              stringtext106 01BC1
__end_of_note83              stringtext105 01BB9
__end_of_note9               stringtext179 01E09
__end_of_pinConfig           text9         0117D
__end_of_printf              text28        0124E
__end_of_putch               text30        011B6
__end_of_reddy1              stringtext190 01E61
__end_of_reddy2              stringtext189 01E59
__end_of_reddy3              stringtext188 01E51
__end_of_rednote             text22        0119C
__end_of_rednotes            text21        01306
__end_of_repeat1             stringtext104 01BB1
__end_of_repeat2             stringtext103 01BA9
__end_of_riff1               stringtext98  01B81
__end_of_riff10              stringtext89  01B39
__end_of_riff11              stringtext88  01B31
__end_of_riff12              stringtext87  01B29
__end_of_riff13              stringtext86  01B21
__end_of_riff14              stringtext85  01B19
__end_of_riff15              stringtext84  01B11
__end_of_riff16              stringtext83  01B09
__end_of_riff17              stringtext82  01B01
__end_of_riff18              stringtext81  01AF9
__end_of_riff19              stringtext80  01AF1
__end_of_riff2               stringtext97  01B79
__end_of_riff20              stringtext79  01AE9
__end_of_riff21              stringtext78  01AE1
__end_of_riff22              stringtext77  01AD9
__end_of_riff23              stringtext76  01AD1
__end_of_riff24              stringtext75  01AC9
__end_of_riff25              stringtext74  01AC1
__end_of_riff26              stringtext73  01AB9
__end_of_riff27              stringtext72  01AB1
__end_of_riff28              stringtext71  01AA9
__end_of_riff29              stringtext70  01AA1
__end_of_riff3               stringtext96  01B71
__end_of_riff30              stringtext69  01A99
__end_of_riff31              stringtext68  01A91
__end_of_riff32              stringtext67  01A89
__end_of_riff33              stringtext66  01A81
__end_of_riff34              stringtext65  01A79
__end_of_riff35              stringtext64  01A71
__end_of_riff36              stringtext63  01A69
__end_of_riff37              stringtext62  01A61
__end_of_riff38              stringtext61  01A59
__end_of_riff39              stringtext60  01A51
__end_of_riff4               stringtext95  01B69
__end_of_riff40              stringtext59  01A49
__end_of_riff41              stringtext58  01A41
__end_of_riff42              stringtext57  01A39
__end_of_riff43              stringtext56  01A31
__end_of_riff44              stringtext55  01A29
__end_of_riff45              stringtext54  01A21
__end_of_riff46              stringtext53  01A19
__end_of_riff47              stringtext52  01A11
__end_of_riff48              stringtext51  01A09
__end_of_riff49              stringtext50  01A01
__end_of_riff5               stringtext94  01B61
__end_of_riff50              stringtext49  019F9
__end_of_riff51              stringtext48  019F1
__end_of_riff52              stringtext47  019E9
__end_of_riff53              stringtext46  019E1
__end_of_riff54              stringtext45  019D9
__end_of_riff55              stringtext44  019D1
__end_of_riff56              stringtext43  019C9
__end_of_riff57              stringtext42  019C1
__end_of_riff58              stringtext41  019B9
__end_of_riff59              stringtext40  019B1
__end_of_riff6               stringtext93  01B59
__end_of_riff60              stringtext39  019A9
__end_of_riff61              stringtext38  019A1
__end_of_riff62              stringtext37  01999
__end_of_riff63              stringtext36  01991
__end_of_riff64              stringtext35  01989
__end_of_riff65              stringtext34  01981
__end_of_riff66              stringtext33  01979
__end_of_riff67              stringtext32  01971
__end_of_riff68              stringtext2   01881
__end_of_riff69              stringtext31  01969
__end_of_riff7               stringtext92  01B51
__end_of_riff70              stringtext30  01961
__end_of_riff71              stringtext29  01959
__end_of_riff72              stringtext28  01951
__end_of_riff73              stringtext27  01949
__end_of_riff74              stringtext26  01941
__end_of_riff75              stringtext25  01939
__end_of_riff76              stringtext24  01931
__end_of_riff77              stringtext23  01929
__end_of_riff78              stringtext22  01921
__end_of_riff79              stringtext21  01919
__end_of_riff8               stringtext91  01B49
__end_of_riff80              stringtext20  01911
__end_of_riff81              stringtext19  01909
__end_of_riff82              stringtext18  01901
__end_of_riff83              stringtext17  018F9
__end_of_riff84              stringtext16  018F1
__end_of_riff85              stringtext15  018E9
__end_of_riff86              stringtext14  018E1
__end_of_riff87              stringtext13  018D9
__end_of_riff88              stringtext12  018D1
__end_of_riff89              stringtext11  018C9
__end_of_riff9               stringtext90  01B41
__end_of_riff90              stringtext10  018C1
__end_of_riff91              stringtext9   018B9
__end_of_riff92              stringtext8   018B1
__end_of_riff93              stringtext7   018A9
__end_of_riff94              stringtext6   018A1
__end_of_riff95              stringtext5   01899
__end_of_riff96              stringtext4   01891
__end_of_riff97              stringtext3   01889
__end_of_setup_comms         text8         01222
__end_of_slowride            text3         007FF
__end_of_sprintf             text2         012A1
__end_of_startsong           text12        01268
__end_of_timer_config        text1         011CE
__end_of_yellow1             stringtext233 01FB9
__end_of_yellow10            stringtext224 01F71
__end_of_yellow11            stringtext223 01F69
__end_of_yellow12            stringtext222 01F61
__end_of_yellow13            stringtext221 01F59
__end_of_yellow14            stringtext220 01F51
__end_of_yellow15            stringtext219 01F49
__end_of_yellow16            stringtext218 01F41
__end_of_yellow17            stringtext217 01F39
__end_of_yellow18            stringtext216 01F31
__end_of_yellow19            stringtext215 01F29
__end_of_yellow2             stringtext232 01FB1
__end_of_yellow20            stringtext214 01F21
__end_of_yellow21            stringtext213 01F19
__end_of_yellow22            stringtext212 01F11
__end_of_yellow23            stringtext211 01F09
__end_of_yellow24            stringtext210 01F01
__end_of_yellow25            stringtext209 01EF9
__end_of_yellow26            stringtext208 01EF1
__end_of_yellow27            stringtext207 01EE9
__end_of_yellow28            stringtext206 01EE1
__end_of_yellow29            stringtext205 01ED9
__end_of_yellow3             stringtext231 01FA9
__end_of_yellow30            stringtext204 01ED1
__end_of_yellow31            stringtext203 01EC9
__end_of_yellow32            stringtext202 01EC1
__end_of_yellow33            stringtext201 01EB9
__end_of_yellow34            stringtext200 01EB1
__end_of_yellow35            stringtext199 01EA9
__end_of_yellow36            stringtext198 01EA1
__end_of_yellow37            stringtext197 01E99
__end_of_yellow4             stringtext230 01FA1
__end_of_yellow5             stringtext229 01F99
__end_of_yellow6             stringtext228 01F91
__end_of_yellow7             stringtext227 01F89
__end_of_yellow8             stringtext226 01F81
__end_of_yellow9             stringtext225 01F79
__end_of_yellownote          text20        011A2
__end_of_yellownotes         text19        00711
__end_of_yellowred1          stringtext196 01E91
__end_of_yellowred2          stringtext195 01E89
__end_of_yellowred3          stringtext194 01E81
__end_of_yellowred4          stringtext193 01E79
__end_of_yellowred5          stringtext192 01E71
__end_of_yellowred6          stringtext191 01E69
__end_of_yellowrednotes      text18        014A4
__end_ofi1_timer_config      text49        011BE
__initialization             cinit         00046
__pbssBANK0                  bssBANK0      00056
__pbssCOMMON                 bssCOMMON     0007A
__pcstackBANK0               cstackBANK0   00020
__pcstackCOMMON              cstackCOMMON  00070
__pdataBANK0                 dataBANK0     00060
__pidataBANK0                idataBANK0    0117D
__pintentry                  intentry      00004
__pmaintext                  maintext      00877
__pstringtext1               stringtext1   01851
__pstringtext10              stringtext10  018B9
__pstringtext100             stringtext100 01B89
__pstringtext101             stringtext101 01B91
__pstringtext102             stringtext102 01B99
__pstringtext103             stringtext103 01BA1
__pstringtext104             stringtext104 01BA9
__pstringtext105             stringtext105 01BB1
__pstringtext106             stringtext106 01BB9
__pstringtext107             stringtext107 01BC1
__pstringtext108             stringtext108 01BC9
__pstringtext109             stringtext109 01BD1
__pstringtext11              stringtext11  018C1
__pstringtext110             stringtext110 01BD9
__pstringtext111             stringtext111 01BE1
__pstringtext112             stringtext112 01BE9
__pstringtext113             stringtext113 01BF1
__pstringtext114             stringtext114 01BF9
__pstringtext115             stringtext115 01C01
__pstringtext116             stringtext116 01C09
__pstringtext117             stringtext117 01C11
__pstringtext118             stringtext118 01C19
__pstringtext119             stringtext119 01C21
__pstringtext12              stringtext12  018C9
__pstringtext120             stringtext120 01C29
__pstringtext121             stringtext121 01C31
__pstringtext122             stringtext122 01C39
__pstringtext123             stringtext123 01C41
__pstringtext124             stringtext124 01C49
__pstringtext125             stringtext125 01C51
__pstringtext126             stringtext126 01C59
__pstringtext127             stringtext127 01C61
__pstringtext128             stringtext128 01C69
__pstringtext129             stringtext129 01C71
__pstringtext13              stringtext13  018D1
__pstringtext130             stringtext130 01C79
__pstringtext131             stringtext131 01C81
__pstringtext132             stringtext132 01C89
__pstringtext133             stringtext133 01C91
__pstringtext134             stringtext134 01C99
__pstringtext135             stringtext135 01CA1
__pstringtext136             stringtext136 01CA9
__pstringtext137             stringtext137 01CB1
__pstringtext138             stringtext138 01CB9
__pstringtext139             stringtext139 01CC1
__pstringtext14              stringtext14  018D9
__pstringtext140             stringtext140 01CC9
__pstringtext141             stringtext141 01CD1
__pstringtext142             stringtext142 01CD9
__pstringtext143             stringtext143 01CE1
__pstringtext144             stringtext144 01CE9
__pstringtext145             stringtext145 01CF1
__pstringtext146             stringtext146 01CF9
__pstringtext147             stringtext147 01D01
__pstringtext148             stringtext148 01D09
__pstringtext149             stringtext149 01D11
__pstringtext15              stringtext15  018E1
__pstringtext150             stringtext150 01D19
__pstringtext151             stringtext151 01D21
__pstringtext152             stringtext152 01D29
__pstringtext153             stringtext153 01D31
__pstringtext154             stringtext154 01D39
__pstringtext155             stringtext155 01D41
__pstringtext156             stringtext156 01D49
__pstringtext157             stringtext157 01D51
__pstringtext158             stringtext158 01D59
__pstringtext159             stringtext159 01D61
__pstringtext16              stringtext16  018E9
__pstringtext160             stringtext160 01D69
__pstringtext161             stringtext161 01D71
__pstringtext162             stringtext162 01D79
__pstringtext163             stringtext163 01D81
__pstringtext164             stringtext164 01D89
__pstringtext165             stringtext165 01D91
__pstringtext166             stringtext166 01D99
__pstringtext167             stringtext167 01DA1
__pstringtext168             stringtext168 01DA9
__pstringtext169             stringtext169 01DB1
__pstringtext17              stringtext17  018F1
__pstringtext170             stringtext170 01DB9
__pstringtext171             stringtext171 01DC1
__pstringtext172             stringtext172 01DC9
__pstringtext173             stringtext173 01DD1
__pstringtext174             stringtext174 01DD9
__pstringtext175             stringtext175 01DE1
__pstringtext176             stringtext176 01DE9
__pstringtext177             stringtext177 01DF1
__pstringtext178             stringtext178 01DF9
__pstringtext179             stringtext179 01E01
__pstringtext18              stringtext18  018F9
__pstringtext180             stringtext180 01E09
__pstringtext181             stringtext181 01E11
__pstringtext182             stringtext182 01E19
__pstringtext183             stringtext183 01E21
__pstringtext184             stringtext184 01E29
__pstringtext185             stringtext185 01E31
__pstringtext186             stringtext186 01E39
__pstringtext187             stringtext187 01E41
__pstringtext188             stringtext188 01E49
__pstringtext189             stringtext189 01E51
__pstringtext19              stringtext19  01901
__pstringtext190             stringtext190 01E59
__pstringtext191             stringtext191 01E61
__pstringtext192             stringtext192 01E69
__pstringtext193             stringtext193 01E71
__pstringtext194             stringtext194 01E79
__pstringtext195             stringtext195 01E81
__pstringtext196             stringtext196 01E89
__pstringtext197             stringtext197 01E91
__pstringtext198             stringtext198 01E99
__pstringtext199             stringtext199 01EA1
__pstringtext2               stringtext2   01879
__pstringtext20              stringtext20  01909
__pstringtext200             stringtext200 01EA9
__pstringtext201             stringtext201 01EB1
__pstringtext202             stringtext202 01EB9
__pstringtext203             stringtext203 01EC1
__pstringtext204             stringtext204 01EC9
__pstringtext205             stringtext205 01ED1
__pstringtext206             stringtext206 01ED9
__pstringtext207             stringtext207 01EE1
__pstringtext208             stringtext208 01EE9
__pstringtext209             stringtext209 01EF1
__pstringtext21              stringtext21  01911
__pstringtext210             stringtext210 01EF9
__pstringtext211             stringtext211 01F01
__pstringtext212             stringtext212 01F09
__pstringtext213             stringtext213 01F11
__pstringtext214             stringtext214 01F19
__pstringtext215             stringtext215 01F21
__pstringtext216             stringtext216 01F29
__pstringtext217             stringtext217 01F31
__pstringtext218             stringtext218 01F39
__pstringtext219             stringtext219 01F41
__pstringtext22              stringtext22  01919
__pstringtext220             stringtext220 01F49
__pstringtext221             stringtext221 01F51
__pstringtext222             stringtext222 01F59
__pstringtext223             stringtext223 01F61
__pstringtext224             stringtext224 01F69
__pstringtext225             stringtext225 01F71
__pstringtext226             stringtext226 01F79
__pstringtext227             stringtext227 01F81
__pstringtext228             stringtext228 01F89
__pstringtext229             stringtext229 01F91
__pstringtext23              stringtext23  01921
__pstringtext230             stringtext230 01F99
__pstringtext231             stringtext231 01FA1
__pstringtext232             stringtext232 01FA9
__pstringtext233             stringtext233 01FB1
__pstringtext234             stringtext234 01FB9
__pstringtext235             stringtext235 01FC1
__pstringtext236             stringtext236 01FC9
__pstringtext237             stringtext237 01FD1
__pstringtext238             stringtext238 01FD9
__pstringtext239             stringtext239 01FE1
__pstringtext24              stringtext24  01929
__pstringtext240             stringtext240 01FE9
__pstringtext241             stringtext241 01FF1
__pstringtext242             stringtext242 01000
__pstringtext243             stringtext243 01008
__pstringtext244             stringtext244 01010
__pstringtext245             stringtext245 01018
__pstringtext246             stringtext246 01020
__pstringtext247             stringtext247 01028
__pstringtext248             stringtext248 01030
__pstringtext249             stringtext249 01038
__pstringtext25              stringtext25  01931
__pstringtext250             stringtext250 01040
__pstringtext251             stringtext251 01048
__pstringtext252             stringtext252 01050
__pstringtext253             stringtext253 01058
__pstringtext254             stringtext254 01060
__pstringtext255             stringtext255 01068
__pstringtext256             stringtext256 01070
__pstringtext257             stringtext257 01078
__pstringtext258             stringtext258 01080
__pstringtext259             stringtext259 01088
__pstringtext26              stringtext26  01939
__pstringtext260             stringtext260 01090
__pstringtext261             stringtext261 01098
__pstringtext262             stringtext262 010A0
__pstringtext263             stringtext263 010A8
__pstringtext264             stringtext264 010B0
__pstringtext265             stringtext265 010B8
__pstringtext266             stringtext266 010C0
__pstringtext267             stringtext267 010C8
__pstringtext268             stringtext268 010D0
__pstringtext269             stringtext269 010D8
__pstringtext27              stringtext27  01941
__pstringtext270             stringtext270 010E0
__pstringtext271             stringtext271 010E8
__pstringtext272             stringtext272 010F0
__pstringtext273             stringtext273 010F8
__pstringtext274             stringtext274 01100
__pstringtext275             stringtext275 01108
__pstringtext276             stringtext276 01110
__pstringtext277             stringtext277 01118
__pstringtext278             stringtext278 01120
__pstringtext279             stringtext279 01128
__pstringtext28              stringtext28  01949
__pstringtext280             stringtext280 01130
__pstringtext281             stringtext281 01138
__pstringtext282             stringtext282 01140
__pstringtext283             stringtext283 01148
__pstringtext284             stringtext284 01150
__pstringtext285             stringtext285 01158
__pstringtext286             stringtext286 01160
__pstringtext287             stringtext287 01168
__pstringtext288             stringtext288 01800
__pstringtext289             stringtext289 01819
__pstringtext29              stringtext29  01951
__pstringtext290             stringtext290 01829
__pstringtext291             stringtext291 01838
__pstringtext292             stringtext292 01845
__pstringtext293             stringtext293 0185B
__pstringtext294             stringtext294 01865
__pstringtext295             stringtext295 0186F
__pstringtext296             stringtext296 01FF9
__pstringtext297             stringtext297 01FFB
__pstringtext298             stringtext298 01FFD
__pstringtext299             stringtext299 00000
__pstringtext3               stringtext3   01881
__pstringtext30              stringtext30  01959
__pstringtext31              stringtext31  01961
__pstringtext32              stringtext32  01969
__pstringtext33              stringtext33  01971
__pstringtext34              stringtext34  01979
__pstringtext35              stringtext35  01981
__pstringtext36              stringtext36  01989
__pstringtext37              stringtext37  01991
__pstringtext38              stringtext38  01999
__pstringtext39              stringtext39  019A1
__pstringtext4               stringtext4   01889
__pstringtext40              stringtext40  019A9
__pstringtext41              stringtext41  019B1
__pstringtext42              stringtext42  019B9
__pstringtext43              stringtext43  019C1
__pstringtext44              stringtext44  019C9
__pstringtext45              stringtext45  019D1
__pstringtext46              stringtext46  019D9
__pstringtext47              stringtext47  019E1
__pstringtext48              stringtext48  019E9
__pstringtext49              stringtext49  019F1
__pstringtext5               stringtext5   01891
__pstringtext50              stringtext50  019F9
__pstringtext51              stringtext51  01A01
__pstringtext52              stringtext52  01A09
__pstringtext53              stringtext53  01A11
__pstringtext54              stringtext54  01A19
__pstringtext55              stringtext55  01A21
__pstringtext56              stringtext56  01A29
__pstringtext57              stringtext57  01A31
__pstringtext58              stringtext58  01A39
__pstringtext59              stringtext59  01A41
__pstringtext6               stringtext6   01899
__pstringtext60              stringtext60  01A49
__pstringtext61              stringtext61  01A51
__pstringtext62              stringtext62  01A59
__pstringtext63              stringtext63  01A61
__pstringtext64              stringtext64  01A69
__pstringtext65              stringtext65  01A71
__pstringtext66              stringtext66  01A79
__pstringtext67              stringtext67  01A81
__pstringtext68              stringtext68  01A89
__pstringtext69              stringtext69  01A91
__pstringtext7               stringtext7   018A1
__pstringtext70              stringtext70  01A99
__pstringtext71              stringtext71  01AA1
__pstringtext72              stringtext72  01AA9
__pstringtext73              stringtext73  01AB1
__pstringtext74              stringtext74  01AB9
__pstringtext75              stringtext75  01AC1
__pstringtext76              stringtext76  01AC9
__pstringtext77              stringtext77  01AD1
__pstringtext78              stringtext78  01AD9
__pstringtext79              stringtext79  01AE1
__pstringtext8               stringtext8   018A9
__pstringtext80              stringtext80  01AE9
__pstringtext81              stringtext81  01AF1
__pstringtext82              stringtext82  01AF9
__pstringtext83              stringtext83  01B01
__pstringtext84              stringtext84  01B09
__pstringtext85              stringtext85  01B11
__pstringtext86              stringtext86  01B19
__pstringtext87              stringtext87  01B21
__pstringtext88              stringtext88  01B29
__pstringtext89              stringtext89  01B31
__pstringtext9               stringtext9   018B1
__pstringtext90              stringtext90  01B39
__pstringtext91              stringtext91  01B41
__pstringtext92              stringtext92  01B49
__pstringtext93              stringtext93  01B51
__pstringtext94              stringtext94  01B59
__pstringtext95              stringtext95  01B61
__pstringtext96              stringtext96  01B69
__pstringtext97              stringtext97  01B71
__pstringtext98              stringtext98  01B79
__pstringtext99              stringtext99  01B81
__ptext1                     text1         011C6
__ptext10                    text10        011F8
__ptext11                    text11        00065
__ptext12                    text12        0124E
__ptext13                    text13        01367
__ptext14                    text14        011D7
__ptext15                    text15        011EC
__ptext16                    text16        011A2
__ptext17                    text17        00BC3
__ptext18                    text18        0145C
__ptext19                    text19        0055D
__ptext2                     text2         01284
__ptext20                    text20        0119C
__ptext21                    text21        012E2
__ptext22                    text22        01196
__ptext23                    text23        01190
__ptext24                    text24        012A1
__ptext25                    text25        01204
__ptext26                    text26        012C1
__ptext27                    text27        011CE
__ptext28                    text28        01238
__ptext29                    text29        015BE
__ptext3                     text3         007CE
__ptext30                    text30        011AF
__ptext31                    text31        01306
__ptext32                    text32        01333
__ptext33                    text33        011E0
__ptext34                    text34        01175
__ptext35                    text35        01222
__ptext36                    text36        014FB
__ptext37                    text37        013D6
__ptext38                    text38        01415
__ptext39                    text39        0139B
__ptext4                     text4         0080F
__ptext40                    text40        014A4
__ptext41                    text41        011A8
__ptext42                    text42        0118B
__ptext43                    text43        01186
__ptext44                    text44        01181
__ptext45                    text45        01268
__ptext46                    text46        00800
__ptext47                    text47        011BE
__ptext49                    text49        011B6
__ptext5                     text5         01556
__ptext6                     text6         00711
__ptext7                     text7         016DB
__ptext8                     text8         01211
__ptext9                     text9         01179
__size_of_I2C_LCD_Busy       (abs)         00000
__size_of_I2C_LCD_Command    (abs)         00000
__size_of_I2C_LCD_Init       (abs)         00000
__size_of_I2C_LCD_Pos        (abs)         00000
__size_of_I2C_LCD_SWrite     (abs)         00000
__size_of_MAX7219_Write      (abs)         00000
__size_of_SPI_Write          (abs)         00000
__size_of___lwdiv            (abs)         00000
__size_of___lwmod            (abs)         00000
__size_of__doprnt            (abs)         00000
__size_of_bluenote           (abs)         00000
__size_of_clockAndpin_config (abs)         00000
__size_of_delay1             (abs)         00000
__size_of_delay2             (abs)         00000
__size_of_delay3             (abs)         00000
__size_of_display            (abs)         00000
__size_of_emptynote          (abs)         00000
__size_of_everlong           (abs)         00000
__size_of_everyother         (abs)         00000
__size_of_get_Touch          (abs)         00000
__size_of_greenbegins        (abs)         00000
__size_of_greennote          (abs)         00000
__size_of_greenrepeat        (abs)         00000
__size_of_heaviest           (abs)         00000
__size_of_i2c_Address        (abs)         00000
__size_of_i2c_Init           (abs)         00000
__size_of_i2c_Read           (abs)         00000
__size_of_i2c_Restart        (abs)         00000
__size_of_i2c_Start          (abs)         00000
__size_of_i2c_Stop           (abs)         00000
__size_of_i2c_Wait           (abs)         00000
__size_of_i2c_Write          (abs)         00000
__size_of_init8x8            (abs)         00000
__size_of_main               (abs)         00000
__size_of_mainriff           (abs)         00000
__size_of_mainriffends       (abs)         00000
__size_of_pinConfig          (abs)         00000
__size_of_printf             (abs)         00000
__size_of_putch              (abs)         00000
__size_of_rednote            (abs)         00000
__size_of_rednotes           (abs)         00000
__size_of_setup_comms        (abs)         00000
__size_of_slowride           (abs)         00000
__size_of_sprintf            (abs)         00000
__size_of_startsong          (abs)         00000
__size_of_timer_config       (abs)         00000
__size_of_yellownote         (abs)         00000
__size_of_yellownotes        (abs)         00000
__size_of_yellowrednotes     (abs)         00000
__size_ofi1_timer_config     (abs)         00000
_bluenote                    text16        011A2
_clockAndpin_config          text35        01222
_delay1                      text15        011EC
_delay2                      text27        011CE
_delay3                      text14        011D7
_display                     text24        012A1
_dpowers                     stringtext1   01851
_emptynote                   text23        01190
_everlong                    text17        00BC3
_everyother                  text13        01367
_everyother1                 stringtext102 01B99
_everyother2                 stringtext101 01B91
_everyother3                 stringtext100 01B89
_everyother4                 stringtext99  01B81
_get_Touch                   intentry      00004
_green1                      stringtext285 01158
_green10                     stringtext276 01110
_green11                     stringtext275 01108
_green12                     stringtext274 01100
_green13                     stringtext273 010F8
_green14                     stringtext272 010F0
_green15                     stringtext271 010E8
_green16                     stringtext270 010E0
_green17                     stringtext269 010D8
_green18                     stringtext268 010D0
_green19                     stringtext267 010C8
_green1_1                    stringtext288 01800
_green1_2                    stringtext287 01168
_green1_3                    stringtext286 01160
_green2                      stringtext284 01150
_green20                     stringtext266 010C0
_green21                     stringtext265 010B8
_green22                     stringtext264 010B0
_green23                     stringtext263 010A8
_green24                     stringtext262 010A0
_green25                     stringtext261 01098
_green26                     stringtext260 01090
_green27                     stringtext259 01088
_green28                     stringtext258 01080
_green29                     stringtext257 01078
_green3                      stringtext283 01148
_green30                     stringtext256 01070
_green31                     stringtext255 01068
_green32                     stringtext254 01060
_green33                     stringtext253 01058
_green34                     stringtext252 01050
_green35                     stringtext251 01048
_green36                     stringtext250 01040
_green37                     stringtext249 01038
_green38                     stringtext248 01030
_green39                     stringtext247 01028
_green4                      stringtext282 01140
_green40                     stringtext246 01020
_green41                     stringtext245 01018
_green42                     stringtext244 01010
_green43                     stringtext243 01008
_green44                     stringtext242 01000
_green45                     stringtext241 01FF1
_green46                     stringtext240 01FE9
_green47                     stringtext239 01FE1
_green48                     stringtext238 01FD9
_green49                     stringtext237 01FD1
_green5                      stringtext281 01138
_green50                     stringtext236 01FC9
_green51                     stringtext235 01FC1
_green52                     stringtext234 01FB9
_green6                      stringtext280 01130
_green7                      stringtext279 01128
_green8                      stringtext278 01120
_green9                      stringtext277 01118
_greenbegins                 text7         016DB
_greennote                   text34        01175
_greenrepeat                 text6         00711
_heaviest                    text11        00065
_i2c_Address                 text46        00800
_i2c_Init                    text10        011F8
_i2c_Read                    text45        01268
_i2c_Restart                 text44        01181
_i2c_Start                   text43        01186
_i2c_Stop                    text42        0118B
_i2c_Wait                    text47        011BE
_i2c_Write                   text41        011A8
_indx                        bssCOMMON     0007A
_init8x8                     text33        011E0
_main                        maintext      00877
_mainriff                    text5         01556
_mainriffends                text4         0080F
_note1                       stringtext187 01E41
_note10                      stringtext178 01DF9
_note11                      stringtext177 01DF1
_note12                      stringtext176 01DE9
_note13                      stringtext175 01DE1
_note14                      stringtext174 01DD9
_note15                      stringtext173 01DD1
_note16                      stringtext172 01DC9
_note17                      stringtext171 01DC1
_note18                      stringtext170 01DB9
_note19                      stringtext169 01DB1
_note2                       stringtext186 01E39
_note20                      stringtext168 01DA9
_note21                      stringtext167 01DA1
_note22                      stringtext166 01D99
_note23                      stringtext165 01D91
_note24                      stringtext164 01D89
_note25                      stringtext163 01D81
_note26                      stringtext162 01D79
_note27                      stringtext161 01D71
_note28                      stringtext160 01D69
_note29                      stringtext159 01D61
_note3                       stringtext185 01E31
_note30                      stringtext158 01D59
_note31                      stringtext157 01D51
_note32                      stringtext156 01D49
_note33                      stringtext155 01D41
_note34                      stringtext154 01D39
_note35                      stringtext153 01D31
_note36                      stringtext152 01D29
_note37                      stringtext151 01D21
_note38                      stringtext150 01D19
_note39                      stringtext149 01D11
_note4                       stringtext184 01E29
_note40                      stringtext148 01D09
_note41                      stringtext147 01D01
_note42                      stringtext146 01CF9
_note43                      stringtext145 01CF1
_note44                      stringtext144 01CE9
_note45                      stringtext143 01CE1
_note46                      stringtext142 01CD9
_note47                      stringtext141 01CD1
_note48                      stringtext140 01CC9
_note49                      stringtext139 01CC1
_note5                       stringtext183 01E21
_note50                      stringtext138 01CB9
_note51                      stringtext137 01CB1
_note52                      stringtext136 01CA9
_note53                      stringtext135 01CA1
_note54                      stringtext134 01C99
_note55                      stringtext133 01C91
_note56                      stringtext132 01C89
_note57                      stringtext131 01C81
_note58                      stringtext130 01C79
_note59                      stringtext129 01C71
_note6                       stringtext182 01E19
_note60                      stringtext128 01C69
_note61                      stringtext127 01C61
_note62                      stringtext126 01C59
_note63                      stringtext125 01C51
_note64                      stringtext124 01C49
_note65                      stringtext123 01C41
_note66                      stringtext122 01C39
_note67                      stringtext121 01C31
_note68                      stringtext120 01C29
_note69                      stringtext119 01C21
_note7                       stringtext181 01E11
_note70                      stringtext118 01C19
_note71                      stringtext117 01C11
_note72                      stringtext116 01C09
_note73                      stringtext115 01C01
_note74                      stringtext114 01BF9
_note75                      stringtext113 01BF1
_note76                      stringtext112 01BE9
_note77                      stringtext111 01BE1
_note78                      stringtext110 01BD9
_note79                      stringtext109 01BD1
_note8                       stringtext180 01E09
_note80                      stringtext108 01BC9
_note81                      stringtext107 01BC1
_note82                      stringtext106 01BB9
_note83                      stringtext105 01BB1
_note9                       stringtext179 01E01
_pinConfig                   text9         01179
_printf                      text28        01238
_push                        dataBANK0     00060
_putch                       text30        011AF
_reddy1                      stringtext190 01E59
_reddy2                      stringtext189 01E51
_reddy3                      stringtext188 01E49
_rednote                     text22        01196
_rednotes                    text21        012E2
_repeat1                     stringtext104 01BA9
_repeat2                     stringtext103 01BA1
_riff1                       stringtext98  01B79
_riff10                      stringtext89  01B31
_riff11                      stringtext88  01B29
_riff12                      stringtext87  01B21
_riff13                      stringtext86  01B19
_riff14                      stringtext85  01B11
_riff15                      stringtext84  01B09
_riff16                      stringtext83  01B01
_riff17                      stringtext82  01AF9
_riff18                      stringtext81  01AF1
_riff19                      stringtext80  01AE9
_riff2                       stringtext97  01B71
_riff20                      stringtext79  01AE1
_riff21                      stringtext78  01AD9
_riff22                      stringtext77  01AD1
_riff23                      stringtext76  01AC9
_riff24                      stringtext75  01AC1
_riff25                      stringtext74  01AB9
_riff26                      stringtext73  01AB1
_riff27                      stringtext72  01AA9
_riff28                      stringtext71  01AA1
_riff29                      stringtext70  01A99
_riff3                       stringtext96  01B69
_riff30                      stringtext69  01A91
_riff31                      stringtext68  01A89
_riff32                      stringtext67  01A81
_riff33                      stringtext66  01A79
_riff34                      stringtext65  01A71
_riff35                      stringtext64  01A69
_riff36                      stringtext63  01A61
_riff37                      stringtext62  01A59
_riff38                      stringtext61  01A51
_riff39                      stringtext60  01A49
_riff4                       stringtext95  01B61
_riff40                      stringtext59  01A41
_riff41                      stringtext58  01A39
_riff42                      stringtext57  01A31
_riff43                      stringtext56  01A29
_riff44                      stringtext55  01A21
_riff45                      stringtext54  01A19
_riff46                      stringtext53  01A11
_riff47                      stringtext52  01A09
_riff48                      stringtext51  01A01
_riff49                      stringtext50  019F9
_riff5                       stringtext94  01B59
_riff50                      stringtext49  019F1
_riff51                      stringtext48  019E9
_riff52                      stringtext47  019E1
_riff53                      stringtext46  019D9
_riff54                      stringtext45  019D1
_riff55                      stringtext44  019C9
_riff56                      stringtext43  019C1
_riff57                      stringtext42  019B9
_riff58                      stringtext41  019B1
_riff59                      stringtext40  019A9
_riff6                       stringtext93  01B51
_riff60                      stringtext39  019A1
_riff61                      stringtext38  01999
_riff62                      stringtext37  01991
_riff63                      stringtext36  01989
_riff64                      stringtext35  01981
_riff65                      stringtext34  01979
_riff66                      stringtext33  01971
_riff67                      stringtext32  01969
_riff69                      stringtext31  01961
_riff7                       stringtext92  01B49
_riff70                      stringtext30  01959
_riff71                      stringtext29  01951
_riff72                      stringtext28  01949
_riff73                      stringtext27  01941
_riff74                      stringtext26  01939
_riff75                      stringtext25  01931
_riff76                      stringtext24  01929
_riff77                      stringtext23  01921
_riff78                      stringtext22  01919
_riff79                      stringtext21  01911
_riff8                       stringtext91  01B41
_riff80                      stringtext20  01909
_riff81                      stringtext19  01901
_riff82                      stringtext18  018F9
_riff83                      stringtext17  018F1
_riff84                      stringtext16  018E9
_riff85                      stringtext15  018E1
_riff86                      stringtext14  018D9
_riff87                      stringtext13  018D1
_riff88                      stringtext12  018C9
_riff89                      stringtext11  018C1
_riff9                       stringtext90  01B39
_riff90                      stringtext10  018B9
_riff91                      stringtext9   018B1
_riff92                      stringtext8   018A9
_riff93                      stringtext7   018A1
_riff94                      stringtext6   01899
_riff95                      stringtext5   01891
_riff96                      stringtext4   01889
_riff97                      stringtext3   01881
_score                       bssBANK0      0005E
_setup_comms                 text8         01211
_slowride                    text3         007CE
_sprintf                     text2         01284
_startsong                   text12        0124E
_timer_config                text1         011C6
_yellow1                     stringtext233 01FB1
_yellow10                    stringtext224 01F69
_yellow11                    stringtext223 01F61
_yellow12                    stringtext222 01F59
_yellow13                    stringtext221 01F51
_yellow14                    stringtext220 01F49
_yellow15                    stringtext219 01F41
_yellow16                    stringtext218 01F39
_yellow17                    stringtext217 01F31
_yellow18                    stringtext216 01F29
_yellow19                    stringtext215 01F21
_yellow2                     stringtext232 01FA9
_yellow20                    stringtext214 01F19
_yellow21                    stringtext213 01F11
_yellow22                    stringtext212 01F09
_yellow23                    stringtext211 01F01
_yellow24                    stringtext210 01EF9
_yellow25                    stringtext209 01EF1
_yellow26                    stringtext208 01EE9
_yellow27                    stringtext207 01EE1
_yellow28                    stringtext206 01ED9
_yellow29                    stringtext205 01ED1
_yellow3                     stringtext231 01FA1
_yellow30                    stringtext204 01EC9
_yellow31                    stringtext203 01EC1
_yellow32                    stringtext202 01EB9
_yellow33                    stringtext201 01EB1
_yellow34                    stringtext200 01EA9
_yellow35                    stringtext199 01EA1
_yellow36                    stringtext198 01E99
_yellow37                    stringtext197 01E91
_yellow4                     stringtext230 01F99
_yellow5                     stringtext229 01F91
_yellow6                     stringtext228 01F89
_yellow7                     stringtext227 01F81
_yellow8                     stringtext226 01F79
_yellow9                     stringtext225 01F71
_yellownote                  text20        0119C
_yellownotes                 text19        0055D
_yellowred1                  stringtext196 01E89
_yellowred2                  stringtext195 01E81
_yellowred3                  stringtext194 01E79
_yellowred4                  stringtext193 01E71
_yellowred5                  stringtext192 01E69
_yellowred6                  stringtext191 01E61
_yellowrednotes              text18        0145C
btemp                        (abs)         0007E
display@data                 cstackCOMMON  00078
display@i                    cstackBANK0   00023
end_of_initialization        cinit         00061
i1_timer_config              text49        011B6
i2c_Address@address          cstackCOMMON  00074
i2c_Address@l_address        cstackCOMMON  00075
i2c_Address@mode             cstackCOMMON  00072
i2c_Read@ack                 cstackCOMMON  00073
i2c_Read@i2cReadData         cstackCOMMON  00074
i2c_Write@data               cstackCOMMON  00072
int$flags                    (abs)         0007E
intlevel0                    functab       00000
intlevel1                    functab       00000
intlevel2                    functab       00000
intlevel3                    functab       00000
intlevel4                    functab       00000
intlevel5                    functab       00000
main@Sout                    cstackBANK0   00040
main@Sptr                    cstackBANK0   0003F
main@shift                   cstackBANK0   00050
main@song                    cstackBANK0   00054
main@write                   cstackBANK0   00052
printf@ap                    cstackBANK0   00036
printf@f                     cstackBANK0   00033
printf@pb                    cstackBANK0   00037
putch@byte                   cstackCOMMON  00072
reset_vec                    reset_vec     00000
sprintf@ap                   cstackBANK0   00038
sprintf@f                    cstackBANK0   00033
sprintf@pb                   cstackBANK0   0003A
sprintf@wh                   cstackBANK0   00039
stackhi                      (abs)         023EF
stacklo                      (abs)         02044
start                        init          00044
start_initialization         cinit         00046
wtemp0                       (abs)         0007E


FUNCTION INFORMATION:

 *************** function _main *****************
 Defined at:
		line 81 in file "main.c"
 Parameters:    Size  Location     Type
		None
 Auto vars:     Size  Location     Type
  Sout           16   32[BANK0 ] unsigned char [16]
  song            2   52[BANK0 ] int 
  write           2   50[BANK0 ] int 
  shift           2   48[BANK0 ] unsigned int 
  z               2    0        int 
  Sptr            1   31[BANK0 ] PTR unsigned char 
		 -> main@Sout(16), 
 Return value:  Size  Location     Type
                  1    wreg      void 
 Registers used:
		wreg, fsr0l, fsr0h, fsr1l, fsr1h, status,2, status,0, pclath, cstack
 Tracked objects:
		On entry : 
		On exit  : 
		Unchanged: 
 Data sizes:     COMMON   BANK0   BANK1   BANK2   BANK3   BANK4   BANK5   BANK6   BANK7   BANK8   BANK9  BANK10  BANK11  BANK12
      Params:         0       0       0       0       0       0       0       0       0       0       0       0       0       0
      Locals:         0      23       0       0       0       0       0       0       0       0       0       0       0       0
      Temps:          0       2       0       0       0       0       0       0       0       0       0       0       0       0
      Totals:         0      25       0       0       0       0       0       0       0       0       0       0       0       0
Total ram usage:       25 bytes
 Hardware stack levels required when called:    7
 This function calls:
		_I2C_LCD_Command
		_I2C_LCD_Init
		_I2C_LCD_Pos
		_I2C_LCD_SWrite
		_clockAndpin_config
		_everlong
		_heaviest
		_i2c_Init
		_pinConfig
		_setup_comms
		_slowride
		_sprintf
		_timer_config
 This function is called by:
		Startup code after reset
 This function uses a non-reentrant model


 *************** function _timer_config *****************
 Defined at:
		line 412 in file "main.c"
 Parameters:    Size  Location     Type
		None
 Auto vars:     Size  Location     Type
		None
 Return value:  Size  Location     Type
                  1    wreg      void 
 Registers used:
		status,2
 Tracked objects:
		On entry : 
		On exit  : 
		Unchanged: 
 Data sizes:     COMMON   BANK0   BANK1   BANK2   BANK3   BANK4   BANK5   BANK6   BANK7   BANK8   BANK9  BANK10  BANK11  BANK12
      Params:         0       0       0       0       0       0       0       0       0       0       0       0       0       0
      Locals:         0       0       0       0       0       0       0       0       0       0       0       0       0       0
      Temps:          0       0       0       0       0       0       0       0       0       0       0       0       0       0
      Totals:         0       0       0       0       0       0       0       0       0       0       0       0       0       0
Total ram usage:        0 bytes
 Hardware stack levels used:    1
 Hardware stack levels required when called:    2
 This function calls:
		Nothing
 This function is called by:
		_main
 This function uses a non-reentrant model


 *************** function _sprintf *****************
 Defined at:
		line 13 in file "/opt/microchip/xc8/v1.45/sources/common/sprintf.c"
 Parameters:    Size  Location     Type
  wh              1    wreg     PTR unsigned char 
		 -> main@Sout(16), 
  f               2   19[BANK0 ] PTR const unsigned char 
		 -> STR_15(10), STR_14(10), STR_13(12), STR_12(10), 
		 -> STR_11(16), STR_10(6), STR_9(16), STR_8(15), 
		 -> STR_7(16), STR_6(10), STR_5(16), STR_4(6), 
		 -> STR_3(16), STR_2(13), STR_1(17), 
 Auto vars:     Size  Location     Type
  wh              1   25[BANK0 ] PTR unsigned char 
		 -> main@Sout(16), 
  pb              3   26[BANK0 ] struct __prbuf
  ap              1   24[BANK0 ] PTR void [1]
		 -> ?_sprintf(2), ?_printf(2), 
 Return value:  Size  Location     Type
                  2   19[BANK0 ] int 
 Registers used:
		wreg, fsr0l, fsr0h, fsr1l, fsr1h, status,2, status,0, pclath, cstack
 Tracked objects:
		On entry : 
		On exit  : 
		Unchanged: 
 Data sizes:     COMMON   BANK0   BANK1   BANK2   BANK3   BANK4   BANK5   BANK6   BANK7   BANK8   BANK9  BANK10  BANK11  BANK12
      Params:         0       4       0       0       0       0       0       0       0       0       0       0       0       0
      Locals:         0       5       0       0       0       0       0       0       0       0       0       0       0       0
      Temps:          0       1       0       0       0       0       0       0       0       0       0       0       0       0
      Totals:         0      10       0       0       0       0       0       0       0       0       0       0       0       0
Total ram usage:       10 bytes
 Hardware stack levels used:    1
 Hardware stack levels required when called:    4
 This function calls:
		__doprnt
 This function is called by:
		_main
 This function uses a non-reentrant model


 *************** function _slowride *****************
 Defined at:
		line 2839 in file "main.c"
 Parameters:    Size  Location     Type
		None
 Auto vars:     Size  Location     Type
		None
 Return value:  Size  Location     Type
                  2   64[None  ] int 
 Registers used:
		wreg, fsr0l, fsr0h, fsr1l, fsr1h, status,2, status,0, pclath, cstack
 Tracked objects:
		On entry : 
		On exit  : 
		Unchanged: 
 Data sizes:     COMMON   BANK0   BANK1   BANK2   BANK3   BANK4   BANK5   BANK6   BANK7   BANK8   BANK9  BANK10  BANK11  BANK12
      Params:         0       0       0       0       0       0       0       0       0       0       0       0       0       0
      Locals:         0       0       0       0       0       0       0       0       0       0       0       0       0       0
      Temps:          0       1       0       0       0       0       0       0       0       0       0       0       0       0
      Totals:         0       1       0       0       0       0       0       0       0       0       0       0       0       0
Total ram usage:        1 bytes
 Hardware stack levels used:    1
 Hardware stack levels required when called:    6
 This function calls:
		_MAX7219_Write
		_greenbegins
		_greenrepeat
		_init8x8
		_mainriff
		_mainriffends
 This function is called by:
		_main
 This function uses a non-reentrant model


 *************** function _mainriffends *****************
 Defined at:
		line 2770 in file "main.c"
 Parameters:    Size  Location     Type
		None
 Auto vars:     Size  Location     Type
		None
 Return value:  Size  Location     Type
                  1    wreg      void 
 Registers used:
		wreg, fsr0l, fsr0h, status,2, status,0, pclath, cstack
 Tracked objects:
		On entry : 
		On exit  : 
		Unchanged: 
 Data sizes:     COMMON   BANK0   BANK1   BANK2   BANK3   BANK4   BANK5   BANK6   BANK7   BANK8   BANK9  BANK10  BANK11  BANK12
      Params:         0       0       0       0       0       0       0       0       0       0       0       0       0       0
      Locals:         0       0       0       0       0       0       0       0       0       0       0       0       0       0
      Temps:          0       0       0       0       0       0       0       0       0       0       0       0       0       0
      Totals:         0       0       0       0       0       0       0       0       0       0       0       0       0       0
Total ram usage:        0 bytes
 Hardware stack levels used:    1
 Hardware stack levels required when called:    5
 This function calls:
		_delay1
		_display
		_emptynote
		_greennote
		_rednote
		_yellownote
 This function is called by:
		_slowride
 This function uses a non-reentrant model


 *************** function _mainriff *****************
 Defined at:
		line 2704 in file "main.c"
 Parameters:    Size  Location     Type
		None
 Auto vars:     Size  Location     Type
		None
 Return value:  Size  Location     Type
                  1    wreg      void 
 Registers used:
		wreg, fsr0l, fsr0h, status,2, status,0, pclath, cstack
 Tracked objects:
		On entry : 
		On exit  : 
		Unchanged: 
 Data sizes:     COMMON   BANK0   BANK1   BANK2   BANK3   BANK4   BANK5   BANK6   BANK7   BANK8   BANK9  BANK10  BANK11  BANK12
      Params:         0       0       0       0       0       0       0       0       0       0       0       0       0       0
      Locals:         0       0       0       0       0       0       0       0       0       0       0       0       0       0
      Temps:          0       0       0       0       0       0       0       0       0       0       0       0       0       0
      Totals:         0       0       0       0       0       0       0       0       0       0       0       0       0       0
Total ram usage:        0 bytes
 Hardware stack levels used:    1
 Hardware stack levels required when called:    5
 This function calls:
		_delay1
		_display
		_emptynote
		_greennote
		_rednote
		_yellownote
 This function is called by:
		_slowride
 This function uses a non-reentrant model


 *************** function _greenrepeat *****************
 Defined at:
		line 2579 in file "main.c"
 Parameters:    Size  Location     Type
		None
 Auto vars:     Size  Location     Type
		None
 Return value:  Size  Location     Type
                  1    wreg      void 
 Registers used:
		wreg, fsr0l, fsr0h, status,2, status,0, pclath, cstack
 Tracked objects:
		On entry : 
		On exit  : 
		Unchanged: 
 Data sizes:     COMMON   BANK0   BANK1   BANK2   BANK3   BANK4   BANK5   BANK6   BANK7   BANK8   BANK9  BANK10  BANK11  BANK12
      Params:         0       0       0       0       0       0       0       0       0       0       0       0       0       0
      Locals:         0       0       0       0       0       0       0       0       0       0       0       0       0       0
      Temps:          0       0       0       0       0       0       0       0       0       0       0       0       0       0
      Totals:         0       0       0       0       0       0       0       0       0       0       0       0       0       0
Total ram usage:        0 bytes
 Hardware stack levels used:    1
 Hardware stack levels required when called:    5
 This function calls:
		_bluenote
		_delay1
		_display
		_emptynote
		_greennote
		_rednote
		_yellownote
 This function is called by:
		_slowride
 This function uses a non-reentrant model


 *************** function _greenbegins *****************
 Defined at:
		line 2401 in file "main.c"
 Parameters:    Size  Location     Type
		None
 Auto vars:     Size  Location     Type
		None
 Return value:  Size  Location     Type
                  1    wreg      void 
 Registers used:
		wreg, fsr0l, fsr0h, fsr1l, fsr1h, status,2, status,0, pclath, cstack
 Tracked objects:
		On entry : 
		On exit  : 
		Unchanged: 
 Data sizes:     COMMON   BANK0   BANK1   BANK2   BANK3   BANK4   BANK5   BANK6   BANK7   BANK8   BANK9  BANK10  BANK11  BANK12
      Params:         0       0       0       0       0       0       0       0       0       0       0       0       0       0
      Locals:         0       0       0       0       0       0       0       0       0       0       0       0       0       0
      Temps:          0       0       0       0       0       0       0       0       0       0       0       0       0       0
      Totals:         0       0       0       0       0       0       0       0       0       0       0       0       0       0
Total ram usage:        0 bytes
 Hardware stack levels used:    1
 Hardware stack levels required when called:    5
 This function calls:
		_bluenote
		_delay1
		_display
		_emptynote
		_greennote
		_printf
		_rednote
		_yellownote
 This function is called by:
		_slowride
 This function uses a non-reentrant model


 *************** function _setup_comms *****************
 Defined at:
		line 298 in file "main.c"
 Parameters:    Size  Location     Type
		None
 Auto vars:     Size  Location     Type
		None
 Return value:  Size  Location     Type
                  1    wreg      void 
 Registers used:
		wreg
 Tracked objects:
		On entry : 
		On exit  : 
		Unchanged: 
 Data sizes:     COMMON   BANK0   BANK1   BANK2   BANK3   BANK4   BANK5   BANK6   BANK7   BANK8   BANK9  BANK10  BANK11  BANK12
      Params:         0       0       0       0       0       0       0       0       0       0       0       0       0       0
      Locals:         0       0       0       0       0       0       0       0       0       0       0       0       0       0
      Temps:          0       0       0       0       0       0       0       0       0       0       0       0       0       0
      Totals:         0       0       0       0       0       0       0       0       0       0       0       0       0       0
Total ram usage:        0 bytes
 Hardware stack levels used:    1
 Hardware stack levels required when called:    2
 This function calls:
		Nothing
 This function is called by:
		_main
 This function uses a non-reentrant model


 *************** function _pinConfig *****************
 Defined at:
		line 330 in file "main.c"
 Parameters:    Size  Location     Type
		None
 Auto vars:     Size  Location     Type
		None
 Return value:  Size  Location     Type
                  1    wreg      void 
 Registers used:
		None
 Tracked objects:
		On entry : 
		On exit  : 
		Unchanged: 
 Data sizes:     COMMON   BANK0   BANK1   BANK2   BANK3   BANK4   BANK5   BANK6   BANK7   BANK8   BANK9  BANK10  BANK11  BANK12
      Params:         0       0       0       0       0       0       0       0       0       0       0       0       0       0
      Locals:         0       0       0       0       0       0       0       0       0       0       0       0       0       0
      Temps:          0       0       0       0       0       0       0       0       0       0       0       0       0       0
      Totals:         0       0       0       0       0       0       0       0       0       0       0       0       0       0
Total ram usage:        0 bytes
 Hardware stack levels used:    1
 Hardware stack levels required when called:    2
 This function calls:
		Nothing
 This function is called by:
		_main
 This function uses a non-reentrant model


 *************** function _i2c_Init *****************
 Defined at:
		line 12 in file "header/i2c.h"
 Parameters:    Size  Location     Type
		None
 Auto vars:     Size  Location     Type
		None
 Return value:  Size  Location     Type
                  1    wreg      void 
 Registers used:
		wreg, status,2
 Tracked objects:
		On entry : 
		On exit  : 
		Unchanged: 
 Data sizes:     COMMON   BANK0   BANK1   BANK2   BANK3   BANK4   BANK5   BANK6   BANK7   BANK8   BANK9  BANK10  BANK11  BANK12
      Params:         0       0       0       0       0       0       0       0       0       0       0       0       0       0
      Locals:         0       0       0       0       0       0       0       0       0       0       0       0       0       0
      Temps:          0       0       0       0       0       0       0       0       0       0       0       0       0       0
      Totals:         0       0       0       0       0       0       0       0       0       0       0       0       0       0
Total ram usage:        0 bytes
 Hardware stack levels used:    1
 Hardware stack levels required when called:    2
 This function calls:
		Nothing
 This function is called by:
		_main
 This function uses a non-reentrant model


 *************** function _heaviest *****************
 Defined at:
		line 7843 in file "main.c"
 Parameters:    Size  Location     Type
		None
 Auto vars:     Size  Location     Type
		None
 Return value:  Size  Location     Type
                  2   68[None  ] int 
 Registers used:
		wreg, fsr0l, fsr0h, fsr1l, fsr1h, status,2, status,0, pclath, cstack
 Tracked objects:
		On entry : 
		On exit  : 
		Unchanged: 
 Data sizes:     COMMON   BANK0   BANK1   BANK2   BANK3   BANK4   BANK5   BANK6   BANK7   BANK8   BANK9  BANK10  BANK11  BANK12
      Params:         0       0       0       0       0       0       0       0       0       0       0       0       0       0
      Locals:         0       0       0       0       0       0       0       0       0       0       0       0       0       0
      Temps:          0       1       0       0       0       0       0       0       0       0       0       0       0       0
      Totals:         0       1       0       0       0       0       0       0       0       0       0       0       0       0
Total ram usage:        1 bytes
 Hardware stack levels used:    1
 Hardware stack levels required when called:    6
 This function calls:
		_MAX7219_Write
		_bluenote
		_delay1
		_delay3
		_display
		_emptynote
		_everyother
		_greennote
		_init8x8
		_printf
		_rednote
		_startsong
		_yellownote
 This function is called by:
		_main
 This function uses a non-reentrant model


 *************** function _startsong *****************
 Defined at:
		line 5878 in file "main.c"
 Parameters:    Size  Location     Type
		None
 Auto vars:     Size  Location     Type
		None
 Return value:  Size  Location     Type
                  1    wreg      void 
 Registers used:
		wreg, fsr0l, fsr0h, status,2, status,0, pclath, cstack
 Tracked objects:
		On entry : 
		On exit  : 
		Unchanged: 
 Data sizes:     COMMON   BANK0   BANK1   BANK2   BANK3   BANK4   BANK5   BANK6   BANK7   BANK8   BANK9  BANK10  BANK11  BANK12
      Params:         0       0       0       0       0       0       0       0       0       0       0       0       0       0
      Locals:         0       0       0       0       0       0       0       0       0       0       0       0       0       0
      Temps:          0       0       0       0       0       0       0       0       0       0       0       0       0       0
      Totals:         0       0       0       0       0       0       0       0       0       0       0       0       0       0
Total ram usage:        0 bytes
 Hardware stack levels used:    1
 Hardware stack levels required when called:    5
 This function calls:
		_delay3
		_display
		_greennote
		_rednote
 This function is called by:
		_heaviest
 This function uses a non-reentrant model


 *************** function _everyother *****************
 Defined at:
		line 5970 in file "main.c"
 Parameters:    Size  Location     Type
		None
 Auto vars:     Size  Location     Type
		None
 Return value:  Size  Location     Type
                  1    wreg      void 
 Registers used:
		wreg, fsr0l, fsr0h, status,2, status,0, pclath, cstack
 Tracked objects:
		On entry : 
		On exit  : 
		Unchanged: 
 Data sizes:     COMMON   BANK0   BANK1   BANK2   BANK3   BANK4   BANK5   BANK6   BANK7   BANK8   BANK9  BANK10  BANK11  BANK12
      Params:         0       0       0       0       0       0       0       0       0       0       0       0       0       0
      Locals:         0       0       0       0       0       0       0       0       0       0       0       0       0       0
      Temps:          0       0       0       0       0       0       0       0       0       0       0       0       0       0
      Totals:         0       0       0       0       0       0       0       0       0       0       0       0       0       0
Total ram usage:        0 bytes
 Hardware stack levels used:    1
 Hardware stack levels required when called:    5
 This function calls:
		_delay3
		_display
		_emptynote
		_greennote
		_rednote
 This function is called by:
		_heaviest
 This function uses a non-reentrant model


 *************** function _delay3 *****************
 Defined at:
		line 395 in file "main.c"
 Parameters:    Size  Location     Type
		None
 Auto vars:     Size  Location     Type
		None
 Return value:  Size  Location     Type
                  1    wreg      void 
 Registers used:
		wreg
 Tracked objects:
		On entry : 
		On exit  : 
		Unchanged: 
 Data sizes:     COMMON   BANK0   BANK1   BANK2   BANK3   BANK4   BANK5   BANK6   BANK7   BANK8   BANK9  BANK10  BANK11  BANK12
      Params:         0       0       0       0       0       0       0       0       0       0       0       0       0       0
      Locals:         0       0       0       0       0       0       0       0       0       0       0       0       0       0
      Temps:          1       0       0       0       0       0       0       0       0       0       0       0       0       0
      Totals:         1       0       0       0       0       0       0       0       0       0       0       0       0       0
Total ram usage:        1 bytes
 Hardware stack levels used:    1
 Hardware stack levels required when called:    2
 This function calls:
		Nothing
 This function is called by:
		_startsong
		_everyother
		_heaviest
 This function uses a non-reentrant model


 *************** function _delay1 *****************
 Defined at:
		line 387 in file "main.c"
 Parameters:    Size  Location     Type
		None
 Auto vars:     Size  Location     Type
		None
 Return value:  Size  Location     Type
                  1    wreg      void 
 Registers used:
		wreg
 Tracked objects:
		On entry : 
		On exit  : 
		Unchanged: 
 Data sizes:     COMMON   BANK0   BANK1   BANK2   BANK3   BANK4   BANK5   BANK6   BANK7   BANK8   BANK9  BANK10  BANK11  BANK12
      Params:         0       0       0       0       0       0       0       0       0       0       0       0       0       0
      Locals:         0       0       0       0       0       0       0       0       0       0       0       0       0       0
      Temps:          2       0       0       0       0       0       0       0       0       0       0       0       0       0
      Totals:         2       0       0       0       0       0       0       0       0       0       0       0       0       0
Total ram usage:        2 bytes
 Hardware stack levels used:    1
 Hardware stack levels required when called:    2
 This function calls:
		Nothing
 This function is called by:
		_greenbegins
		_greenrepeat
		_mainriff
		_mainriffends
		_heaviest
 This function uses a non-reentrant model


 *************** function _bluenote *****************
 Defined at:
		line 379 in file "main.c"
 Parameters:    Size  Location     Type
		None
 Auto vars:     Size  Location     Type
		None
 Return value:  Size  Location     Type
                  1    wreg      void 
 Registers used:
		wreg
 Tracked objects:
		On entry : 
		On exit  : 
		Unchanged: 
 Data sizes:     COMMON   BANK0   BANK1   BANK2   BANK3   BANK4   BANK5   BANK6   BANK7   BANK8   BANK9  BANK10  BANK11  BANK12
      Params:         0       0       0       0       0       0       0       0       0       0       0       0       0       0
      Locals:         0       0       0       0       0       0       0       0       0       0       0       0       0       0
      Temps:          0       0       0       0       0       0       0       0       0       0       0       0       0       0
      Totals:         0       0       0       0       0       0       0       0       0       0       0       0       0       0
Total ram usage:        0 bytes
 Hardware stack levels used:    1
 Hardware stack levels required when called:    2
 This function calls:
		Nothing
 This function is called by:
		_greenbegins
		_greenrepeat
		_heaviest
 This function uses a non-reentrant model


 *************** function _everlong *****************
 Defined at:
		line 5362 in file "main.c"
 Parameters:    Size  Location     Type
		None
 Auto vars:     Size  Location     Type
		None
 Return value:  Size  Location     Type
                  2   66[None  ] int 
 Registers used:
		wreg, fsr0l, fsr0h, fsr1l, fsr1h, status,2, status,0, pclath, cstack
 Tracked objects:
		On entry : 
		On exit  : 
		Unchanged: 
 Data sizes:     COMMON   BANK0   BANK1   BANK2   BANK3   BANK4   BANK5   BANK6   BANK7   BANK8   BANK9  BANK10  BANK11  BANK12
      Params:         0       0       0       0       0       0       0       0       0       0       0       0       0       0
      Locals:         0       0       0       0       0       0       0       0       0       0       0       0       0       0
      Temps:          0       1       0       0       0       0       0       0       0       0       0       0       0       0
      Totals:         0       1       0       0       0       0       0       0       0       0       0       0       0       0
Total ram usage:        1 bytes
 Hardware stack levels used:    1
 Hardware stack levels required when called:    6
 This function calls:
		_MAX7219_Write
		_delay2
		_display
		_emptynote
		_greennote
		_init8x8
		_printf
		_rednote
		_rednotes
		_yellownote
		_yellownotes
		_yellowrednotes
 This function is called by:
		_main
 This function uses a non-reentrant model


 *************** function _yellowrednotes *****************
 Defined at:
		line 3773 in file "main.c"
 Parameters:    Size  Location     Type
		None
 Auto vars:     Size  Location     Type
		None
 Return value:  Size  Location     Type
                  1    wreg      void 
 Registers used:
		wreg, fsr0l, fsr0h, status,2, status,0, pclath, cstack
 Tracked objects:
		On entry : 
		On exit  : 
		Unchanged: 
 Data sizes:     COMMON   BANK0   BANK1   BANK2   BANK3   BANK4   BANK5   BANK6   BANK7   BANK8   BANK9  BANK10  BANK11  BANK12
      Params:         0       0       0       0       0       0       0       0       0       0       0       0       0       0
      Locals:         0       0       0       0       0       0       0       0       0       0       0       0       0       0
      Temps:          0       0       0       0       0       0       0       0       0       0       0       0       0       0
      Totals:         0       0       0       0       0       0       0       0       0       0       0       0       0       0
Total ram usage:        0 bytes
 Hardware stack levels used:    1
 Hardware stack levels required when called:    5
 This function calls:
		_delay2
		_display
		_emptynote
		_rednote
		_yellownote
 This function is called by:
		_everlong
 This function uses a non-reentrant model


 *************** function _yellownotes *****************
 Defined at:
		line 3530 in file "main.c"
 Parameters:    Size  Location     Type
		None
 Auto vars:     Size  Location     Type
		None
 Return value:  Size  Location     Type
                  1    wreg      void 
 Registers used:
		wreg, fsr0l, fsr0h, status,2, status,0, pclath, cstack
 Tracked objects:
		On entry : 
		On exit  : 
		Unchanged: 
 Data sizes:     COMMON   BANK0   BANK1   BANK2   BANK3   BANK4   BANK5   BANK6   BANK7   BANK8   BANK9  BANK10  BANK11  BANK12
      Params:         0       0       0       0       0       0       0       0       0       0       0       0       0       0
      Locals:         0       0       0       0       0       0       0       0       0       0       0       0       0       0
      Temps:          0       0       0       0       0       0       0       0       0       0       0       0       0       0
      Totals:         0       0       0       0       0       0       0       0       0       0       0       0       0       0
Total ram usage:        0 bytes
 Hardware stack levels used:    1
 Hardware stack levels required when called:    5
 This function calls:
		_delay2
		_display
		_emptynote
		_rednote
		_yellownote
 This function is called by:
		_everlong
 This function uses a non-reentrant model


 *************** function _yellownote *****************
 Defined at:
		line 375 in file "main.c"
 Parameters:    Size  Location     Type
		None
 Auto vars:     Size  Location     Type
		None
 Return value:  Size  Location     Type
                  1    wreg      void 
 Registers used:
		wreg
 Tracked objects:
		On entry : 
		On exit  : 
		Unchanged: 
 Data sizes:     COMMON   BANK0   BANK1   BANK2   BANK3   BANK4   BANK5   BANK6   BANK7   BANK8   BANK9  BANK10  BANK11  BANK12
      Params:         0       0       0       0       0       0       0       0       0       0       0       0       0       0
      Locals:         0       0       0       0       0       0       0       0       0       0       0       0       0       0
      Temps:          0       0       0       0       0       0       0       0       0       0       0       0       0       0
      Totals:         0       0       0       0       0       0       0       0       0       0       0       0       0       0
Total ram usage:        0 bytes
 Hardware stack levels used:    1
 Hardware stack levels required when called:    2
 This function calls:
		Nothing
 This function is called by:
		_greenbegins
		_greenrepeat
		_mainriff
		_mainriffends
		_yellownotes
		_yellowrednotes
		_everlong
		_heaviest
 This function uses a non-reentrant model


 *************** function _rednotes *****************
 Defined at:
		line 3851 in file "main.c"
 Parameters:    Size  Location     Type
		None
 Auto vars:     Size  Location     Type
		None
 Return value:  Size  Location     Type
                  1    wreg      void 
 Registers used:
		wreg, fsr0l, fsr0h, status,2, status,0, pclath, cstack
 Tracked objects:
		On entry : 
		On exit  : 
		Unchanged: 
 Data sizes:     COMMON   BANK0   BANK1   BANK2   BANK3   BANK4   BANK5   BANK6   BANK7   BANK8   BANK9  BANK10  BANK11  BANK12
      Params:         0       0       0       0       0       0       0       0       0       0       0       0       0       0
      Locals:         0       0       0       0       0       0       0       0       0       0       0       0       0       0
      Temps:          0       0       0       0       0       0       0       0       0       0       0       0       0       0
      Totals:         0       0       0       0       0       0       0       0       0       0       0       0       0       0
Total ram usage:        0 bytes
 Hardware stack levels used:    1
 Hardware stack levels required when called:    5
 This function calls:
		_delay2
		_display
		_emptynote
		_rednote
 This function is called by:
		_everlong
 This function uses a non-reentrant model


 *************** function _rednote *****************
 Defined at:
		line 371 in file "main.c"
 Parameters:    Size  Location     Type
		None
 Auto vars:     Size  Location     Type
		None
 Return value:  Size  Location     Type
                  1    wreg      void 
 Registers used:
		wreg
 Tracked objects:
		On entry : 
		On exit  : 
		Unchanged: 
 Data sizes:     COMMON   BANK0   BANK1   BANK2   BANK3   BANK4   BANK5   BANK6   BANK7   BANK8   BANK9  BANK10  BANK11  BANK12
      Params:         0       0       0       0       0       0       0       0       0       0       0       0       0       0
      Locals:         0       0       0       0       0       0       0       0       0       0       0       0       0       0
      Temps:          0       0       0       0       0       0       0       0       0       0       0       0       0       0
      Totals:         0       0       0       0       0       0       0       0       0       0       0       0       0       0
Total ram usage:        0 bytes
 Hardware stack levels used:    1
 Hardware stack levels required when called:    2
 This function calls:
		Nothing
 This function is called by:
		_greenbegins
		_greenrepeat
		_mainriff
		_mainriffends
		_yellownotes
		_yellowrednotes
		_rednotes
		_everlong
		_startsong
		_everyother
		_heaviest
 This function uses a non-reentrant model


 *************** function _emptynote *****************
 Defined at:
		line 383 in file "main.c"
 Parameters:    Size  Location     Type
		None
 Auto vars:     Size  Location     Type
		None
 Return value:  Size  Location     Type
                  1    wreg      void 
 Registers used:
		wreg
 Tracked objects:
		On entry : 
		On exit  : 
		Unchanged: 
 Data sizes:     COMMON   BANK0   BANK1   BANK2   BANK3   BANK4   BANK5   BANK6   BANK7   BANK8   BANK9  BANK10  BANK11  BANK12
      Params:         0       0       0       0       0       0       0       0       0       0       0       0       0       0
      Locals:         0       0       0       0       0       0       0       0       0       0       0       0       0       0
      Temps:          0       0       0       0       0       0       0       0       0       0       0       0       0       0
      Totals:         0       0       0       0       0       0       0       0       0       0       0       0       0       0
Total ram usage:        0 bytes
 Hardware stack levels used:    1
 Hardware stack levels required when called:    2
 This function calls:
		Nothing
 This function is called by:
		_greenbegins
		_greenrepeat
		_mainriff
		_mainriffends
		_yellownotes
		_yellowrednotes
		_rednotes
		_everlong
		_everyother
		_heaviest
 This function uses a non-reentrant model


 *************** function _display *****************
 Defined at:
		line 360 in file "main.c"
 Parameters:    Size  Location     Type
  data            2    8[COMMON] PTR const unsigned char 
		 -> riff97(8), riff96(8), riff95(8), riff94(8), 
		 -> riff93(8), riff92(8), riff91(8), riff90(8), 
		 -> riff89(8), riff88(8), riff87(8), riff86(8), 
		 -> riff85(8), riff84(8), riff83(8), riff82(8), 
		 -> riff81(8), riff80(8), riff79(8), riff78(8), 
		 -> riff77(8), riff76(8), riff75(8), riff74(8), 
		 -> riff73(8), riff72(8), riff71(8), riff70(8), 
		 -> riff69(8), riff67(8), riff66(8), riff65(8), 
		 -> riff64(8), riff63(8), riff62(8), riff61(8), 
		 -> riff60(8), riff59(8), riff58(8), riff57(8), 
		 -> riff56(8), riff55(8), riff54(8), riff53(8), 
		 -> riff52(8), riff51(8), riff50(8), riff49(8), 
		 -> riff48(8), riff47(8), riff46(8), riff45(8), 
		 -> riff44(8), riff43(8), riff42(8), riff41(8), 
		 -> riff40(8), riff39(8), riff38(8), riff37(8), 
		 -> riff36(8), riff35(8), riff34(8), riff33(8), 
		 -> riff32(8), riff31(8), riff30(8), riff29(8), 
		 -> riff28(8), riff27(8), riff26(8), riff25(8), 
		 -> riff24(8), riff23(8), riff22(8), riff21(8), 
		 -> riff20(8), riff19(8), riff18(8), riff17(8), 
		 -> riff16(8), riff15(8), riff14(8), riff13(8), 
		 -> riff12(8), riff11(8), riff10(8), riff9(8), 
		 -> riff8(8), riff7(8), riff6(8), riff5(8), 
		 -> riff4(8), riff3(8), riff2(8), riff1(8), 
		 -> everyother4(8), everyother3(8), everyother2(8), everyother1(8), 
		 -> repeat2(8), repeat1(8), note83(8), note82(8), 
		 -> note81(8), note80(8), note79(8), note78(8), 
		 -> note77(8), note76(8), note75(8), note74(8), 
		 -> note73(8), note72(8), note71(8), note70(8), 
		 -> note69(8), note68(8), note67(8), note66(8), 
		 -> note65(8), note64(8), note63(8), note62(8), 
		 -> note61(8), note60(8), note59(8), note58(8), 
		 -> note57(8), note56(8), note55(8), note54(8), 
		 -> note53(8), note52(8), note51(8), note50(8), 
		 -> note49(8), note48(8), note47(8), note46(8), 
		 -> note45(8), note44(8), note43(8), note42(8), 
		 -> note41(8), note40(8), note39(8), note38(8), 
		 -> note37(8), note36(8), note35(8), note34(8), 
		 -> note33(8), note32(8), note31(8), note30(8), 
		 -> note29(8), note28(8), note27(8), note26(8), 
		 -> note25(8), note24(8), note23(8), note22(8), 
		 -> note21(8), note20(8), note19(8), note18(8), 
		 -> note17(8), note16(8), note15(8), note14(8), 
		 -> note13(8), note12(8), note11(8), note10(8), 
		 -> note9(8), note8(8), note7(8), note6(8), 
		 -> note5(8), note4(8), note3(8), note2(8), 
		 -> note1(8), reddy3(8), reddy2(8), reddy1(8), 
		 -> yellowred6(8), yellowred5(8), yellowred4(8), yellowred3(8), 
		 -> yellowred2(8), yellowred1(8), yellow37(8), yellow36(8), 
		 -> yellow35(8), yellow34(8), yellow33(8), yellow32(8), 
		 -> yellow31(8), yellow30(8), yellow29(8), yellow28(8), 
		 -> yellow27(8), yellow26(8), yellow25(8), yellow24(8), 
		 -> yellow23(8), yellow22(8), yellow21(8), yellow20(8), 
		 -> yellow19(8), yellow18(8), yellow17(8), yellow16(8), 
		 -> yellow15(8), yellow14(8), yellow13(8), yellow12(8), 
		 -> yellow11(8), yellow10(8), yellow9(8), yellow8(8), 
		 -> yellow7(8), yellow6(8), yellow5(8), yellow4(8), 
		 -> yellow3(8), yellow2(8), yellow1(8), green52(8), 
		 -> green51(8), green50(8), green49(8), green48(8), 
		 -> green47(8), green46(8), green45(8), green44(8), 
		 -> green43(8), green42(8), green41(8), green40(8), 
		 -> green39(8), green38(8), green37(8), green36(8), 
		 -> green35(8), green34(8), green33(8), green32(8), 
		 -> green31(8), green30(8), green29(8), green28(8), 
		 -> green27(8), green26(8), green25(8), green24(8), 
		 -> green23(8), green22(8), green21(8), green20(8), 
		 -> green19(8), green18(8), green17(8), green16(8), 
		 -> green15(8), green14(8), green13(8), green12(8), 
		 -> green11(8), green10(8), green9(8), green8(8), 
		 -> green7(8), green6(8), green5(8), green4(8), 
		 -> green3(8), green2(8), green1(8), green1_3(8), 
		 -> green1_2(8), green1_1(8), 
 Auto vars:     Size  Location     Type
  i               1    3[BANK0 ] unsigned char 
 Return value:  Size  Location     Type
                  1    wreg      void 
 Registers used:
		wreg, fsr0l, fsr0h, status,2, status,0, pclath, cstack
 Tracked objects:
		On entry : 
		On exit  : 
		Unchanged: 
 Data sizes:     COMMON   BANK0   BANK1   BANK2   BANK3   BANK4   BANK5   BANK6   BANK7   BANK8   BANK9  BANK10  BANK11  BANK12
      Params:         2       0       0       0       0       0       0       0       0       0       0       0       0       0
      Locals:         0       1       0       0       0       0       0       0       0       0       0       0       0       0
      Temps:          0       3       0       0       0       0       0       0       0       0       0       0       0       0
      Totals:         2       4       0       0       0       0       0       0       0       0       0       0       0       0
Total ram usage:        6 bytes
 Hardware stack levels used:    1
 Hardware stack levels required when called:    4
 This function calls:
		_MAX7219_Write
 This function is called by:
		_greenbegins
		_greenrepeat
		_mainriff
		_mainriffends
		_yellownotes
		_yellowrednotes
		_rednotes
		_everlong
		_startsong
		_everyother
		_heaviest
 This function uses a non-reentrant model


 *************** function _MAX7219_Write *****************
 Defined at:
		line 353 in file "main.c"
 Parameters:    Size  Location     Type
  reg             1    wreg     unsigned char 
  data            1    6[COMMON] unsigned char 
 Auto vars:     Size  Location     Type
  reg             1    7[COMMON] unsigned char 
 Return value:  Size  Location     Type
                  1    wreg      void 
 Registers used:
		wreg, status,2, status,0, pclath, cstack
 Tracked objects:
		On entry : 
		On exit  : 
		Unchanged: 
 Data sizes:     COMMON   BANK0   BANK1   BANK2   BANK3   BANK4   BANK5   BANK6   BANK7   BANK8   BANK9  BANK10  BANK11  BANK12
      Params:         1       0       0       0       0       0       0       0       0       0       0       0       0       0
      Locals:         1       0       0       0       0       0       0       0       0       0       0       0       0       0
      Temps:          0       0       0       0       0       0       0       0       0       0       0       0       0       0
      Totals:         2       0       0       0       0       0       0       0       0       0       0       0       0       0
Total ram usage:        2 bytes
 Hardware stack levels used:    1
 Hardware stack levels required when called:    3
 This function calls:
		_SPI_Write
 This function is called by:
		_display
		_slowride
		_everlong
		_heaviest
 This function uses a non-reentrant model


 *************** function _SPI_Write *****************
 Defined at:
		line 344 in file "main.c"
 Parameters:    Size  Location     Type
  data            1    wreg     unsigned char 
 Auto vars:     Size  Location     Type
  data            1    4[COMMON] unsigned char 
  i               1    5[COMMON] unsigned char 
 Return value:  Size  Location     Type
                  1    wreg      void 
 Registers used:
		wreg, status,2, status,0
 Tracked objects:
		On entry : 
		On exit  : 
		Unchanged: 
 Data sizes:     COMMON   BANK0   BANK1   BANK2   BANK3   BANK4   BANK5   BANK6   BANK7   BANK8   BANK9  BANK10  BANK11  BANK12
      Params:         0       0       0       0       0       0       0       0       0       0       0       0       0       0
      Locals:         2       0       0       0       0       0       0       0       0       0       0       0       0       0
      Temps:          2       0       0       0       0       0       0       0       0       0       0       0       0       0
      Totals:         4       0       0       0       0       0       0       0       0       0       0       0       0       0
Total ram usage:        4 bytes
 Hardware stack levels used:    1
 Hardware stack levels required when called:    2
 This function calls:
		Nothing
 This function is called by:
		_MAX7219_Write
 This function uses a non-reentrant model


 *************** function _delay2 *****************
 Defined at:
		line 391 in file "main.c"
 Parameters:    Size  Location     Type
		None
 Auto vars:     Size  Location     Type
		None
 Return value:  Size  Location     Type
                  1    wreg      void 
 Registers used:
		wreg
 Tracked objects:
		On entry : 
		On exit  : 
		Unchanged: 
 Data sizes:     COMMON   BANK0   BANK1   BANK2   BANK3   BANK4   BANK5   BANK6   BANK7   BANK8   BANK9  BANK10  BANK11  BANK12
      Params:         0       0       0       0       0       0       0       0       0       0       0       0       0       0
      Locals:         0       0       0       0       0       0       0       0       0       0       0       0       0       0
      Temps:          1       0       0       0       0       0       0       0       0       0       0       0       0       0
      Totals:         1       0       0       0       0       0       0       0       0       0       0       0       0       0
Total ram usage:        1 bytes
 Hardware stack levels used:    1
 Hardware stack levels required when called:    2
 This function calls:
		Nothing
 This function is called by:
		_yellownotes
		_yellowrednotes
		_rednotes
		_everlong
 This function uses a non-reentrant model


 *************** function _printf *****************
 Defined at:
		line 13 in file "/opt/microchip/xc8/v1.45/sources/common/printf.c"
 Parameters:    Size  Location     Type
  f               2   19[BANK0 ] PTR const unsigned char 
		 -> STR_18(2), STR_17(2), STR_16(2), 
 Auto vars:     Size  Location     Type
  pb              3   23[BANK0 ] struct __prbuf
  ap              1   22[BANK0 ] PTR void [1]
		 -> ?_sprintf(2), ?_printf(2), 
 Return value:  Size  Location     Type
                  2   19[BANK0 ] int 
 Registers used:
		wreg, fsr0l, fsr0h, fsr1l, fsr1h, status,2, status,0, pclath, cstack
 Tracked objects:
		On entry : 
		On exit  : 
		Unchanged: 
 Data sizes:     COMMON   BANK0   BANK1   BANK2   BANK3   BANK4   BANK5   BANK6   BANK7   BANK8   BANK9  BANK10  BANK11  BANK12
      Params:         0       2       0       0       0       0       0       0       0       0       0       0       0       0
      Locals:         0       4       0       0       0       0       0       0       0       0       0       0       0       0
      Temps:          0       1       0       0       0       0       0       0       0       0       0       0       0       0
      Totals:         0       7       0       0       0       0       0       0       0       0       0       0       0       0
Total ram usage:        7 bytes
 Hardware stack levels used:    1
 Hardware stack levels required when called:    4
 This function calls:
		__doprnt
 This function is called by:
		_greenbegins
		_everlong
		_heaviest
 This function uses a non-reentrant model


 *************** function __doprnt *****************
 Defined at:
		line 458 in file "/opt/microchip/xc8/v1.45/sources/common/doprnt.c"
 Parameters:    Size  Location     Type
  pb              1    wreg     PTR struct __prbuf
		 -> sprintf@pb(3), printf@pb(3), 
  f               2    6[BANK0 ] PTR const unsigned char 
		 -> STR_18(2), STR_17(2), STR_16(2), STR_15(10), 
		 -> STR_14(10), STR_13(12), STR_12(10), STR_11(16), 
		 -> STR_10(6), STR_9(16), STR_8(15), STR_7(16), 
		 -> STR_6(10), STR_5(16), STR_4(6), STR_3(16), 
		 -> STR_2(13), STR_1(17), 
  ap              1    8[BANK0 ] PTR PTR void 
		 -> sprintf@ap(1), printf@ap(1), 
 Auto vars:     Size  Location     Type
  pb              1   18[BANK0 ] PTR struct __prbuf
		 -> sprintf@pb(3), printf@pb(3), 
  tmpval          4    0        struct .
  val             2   15[BANK0 ] unsigned int 
  cp              2    0        PTR const unsigned char 
  len             2    0        unsigned int 
  c               1   17[BANK0 ] char 
  prec            1   14[BANK0 ] char 
  flag            1   13[BANK0 ] unsigned char 
 Return value:  Size  Location     Type
                  2    6[BANK0 ] int 
 Registers used:
		wreg, fsr0l, fsr0h, fsr1l, fsr1h, status,2, status,0, pclath, cstack
 Tracked objects:
		On entry : 
		On exit  : 
		Unchanged: 
 Data sizes:     COMMON   BANK0   BANK1   BANK2   BANK3   BANK4   BANK5   BANK6   BANK7   BANK8   BANK9  BANK10  BANK11  BANK12
      Params:         0       3       0       0       0       0       0       0       0       0       0       0       0       0
      Locals:         0       6       0       0       0       0       0       0       0       0       0       0       0       0
      Temps:          0       4       0       0       0       0       0       0       0       0       0       0       0       0
      Totals:         0      13       0       0       0       0       0       0       0       0       0       0       0       0
Total ram usage:       13 bytes
 Hardware stack levels used:    1
 Hardware stack levels required when called:    3
 This function calls:
		Absolute function
		___lwdiv
		___lwmod
		_putch
 This function is called by:
		_printf
		_sprintf
 This function uses a non-reentrant model


 *************** function _putch *****************
 Defined at:
		line 310 in file "main.c"
 Parameters:    Size  Location     Type
  byte            1    2[COMMON] unsigned char 
 Auto vars:     Size  Location     Type
		None
 Return value:  Size  Location     Type
                  1    wreg      void 
 Registers used:
		wreg
 Tracked objects:
		On entry : 
		On exit  : 
		Unchanged: 
 Data sizes:     COMMON   BANK0   BANK1   BANK2   BANK3   BANK4   BANK5   BANK6   BANK7   BANK8   BANK9  BANK10  BANK11  BANK12
      Params:         1       0       0       0       0       0       0       0       0       0       0       0       0       0
      Locals:         0       0       0       0       0       0       0       0       0       0       0       0       0       0
      Temps:          0       0       0       0       0       0       0       0       0       0       0       0       0       0
      Totals:         1       0       0       0       0       0       0       0       0       0       0       0       0       0
Total ram usage:        1 bytes
 Hardware stack levels used:    1
 Hardware stack levels required when called:    2
 This function calls:
		Nothing
 This function is called by:
		_printf
		_getche
		__doprnt
 This function uses a non-reentrant model


 *************** function ___lwmod *****************
 Defined at:
		line 6 in file "/opt/microchip/xc8/v1.45/sources/common/lwmod.c"
 Parameters:    Size  Location     Type
  divisor         2    0[BANK0 ] unsigned int 
  dividend        2    2[BANK0 ] unsigned int 
 Auto vars:     Size  Location     Type
  counter         1    5[BANK0 ] unsigned char 
 Return value:  Size  Location     Type
                  2    0[BANK0 ] unsigned int 
 Registers used:
		wreg, status,2, status,0
 Tracked objects:
		On entry : 
		On exit  : 
		Unchanged: 
 Data sizes:     COMMON   BANK0   BANK1   BANK2   BANK3   BANK4   BANK5   BANK6   BANK7   BANK8   BANK9  BANK10  BANK11  BANK12
      Params:         0       4       0       0       0       0       0       0       0       0       0       0       0       0
      Locals:         0       1       0       0       0       0       0       0       0       0       0       0       0       0
      Temps:          0       1       0       0       0       0       0       0       0       0       0       0       0       0
      Totals:         0       6       0       0       0       0       0       0       0       0       0       0       0       0
Total ram usage:        6 bytes
 Hardware stack levels used:    1
 Hardware stack levels required when called:    2
 This function calls:
		Nothing
 This function is called by:
		__doprnt
 This function uses a non-reentrant model


 *************** function ___lwdiv *****************
 Defined at:
		line 6 in file "/opt/microchip/xc8/v1.45/sources/common/lwdiv.c"
 Parameters:    Size  Location     Type
  divisor         2    2[COMMON] unsigned int 
  dividend        2    4[COMMON] unsigned int 
 Auto vars:     Size  Location     Type
  quotient        2    7[COMMON] unsigned int 
  counter         1    9[COMMON] unsigned char 
 Return value:  Size  Location     Type
                  2    2[COMMON] unsigned int 
 Registers used:
		wreg, status,2, status,0
 Tracked objects:
		On entry : 
		On exit  : 
		Unchanged: 
 Data sizes:     COMMON   BANK0   BANK1   BANK2   BANK3   BANK4   BANK5   BANK6   BANK7   BANK8   BANK9  BANK10  BANK11  BANK12
      Params:         4       0       0       0       0       0       0       0       0       0       0       0       0       0
      Locals:         3       0       0       0       0       0       0       0       0       0       0       0       0       0
      Temps:          1       0       0       0       0       0       0       0       0       0       0       0       0       0
      Totals:         8       0       0       0       0       0       0       0       0       0       0       0       0       0
Total ram usage:        8 bytes
 Hardware stack levels used:    1
 Hardware stack levels required when called:    2
 This function calls:
		Nothing
 This function is called by:
		__doprnt
 This function uses a non-reentrant model


 *************** function _init8x8 *****************
 Defined at:
		line 335 in file "main.c"
 Parameters:    Size  Location     Type
		None
 Auto vars:     Size  Location     Type
		None
 Return value:  Size  Location     Type
                  1    wreg      void 
 Registers used:
		wreg, status,2
 Tracked objects:
		On entry : 
		On exit  : 
		Unchanged: 
 Data sizes:     COMMON   BANK0   BANK1   BANK2   BANK3   BANK4   BANK5   BANK6   BANK7   BANK8   BANK9  BANK10  BANK11  BANK12
      Params:         0       0       0       0       0       0       0       0       0       0       0       0       0       0
      Locals:         0       0       0       0       0       0       0       0       0       0       0       0       0       0
      Temps:          0       0       0       0       0       0       0       0       0       0       0       0       0       0
      Totals:         0       0       0       0       0       0       0       0       0       0       0       0       0       0
Total ram usage:        0 bytes
 Hardware stack levels used:    1
 Hardware stack levels required when called:    2
 This function calls:
		Nothing
 This function is called by:
		_slowride
		_everlong
		_heaviest
 This function uses a non-reentrant model


 *************** function _greennote *****************
 Defined at:
		line 367 in file "main.c"
 Parameters:    Size  Location     Type
		None
 Auto vars:     Size  Location     Type
		None
 Return value:  Size  Location     Type
                  1    wreg      void 
 Registers used:
		status,2
 Tracked objects:
		On entry : 
		On exit  : 
		Unchanged: 
 Data sizes:     COMMON   BANK0   BANK1   BANK2   BANK3   BANK4   BANK5   BANK6   BANK7   BANK8   BANK9  BANK10  BANK11  BANK12
      Params:         0       0       0       0       0       0       0       0       0       0       0       0       0       0
      Locals:         0       0       0       0       0       0       0       0       0       0       0       0       0       0
      Temps:          0       0       0       0       0       0       0       0       0       0       0       0       0       0
      Totals:         0       0       0       0       0       0       0       0       0       0       0       0       0       0
Total ram usage:        0 bytes
 Hardware stack levels used:    1
 Hardware stack levels required when called:    2
 This function calls:
		Nothing
 This function is called by:
		_greenbegins
		_greenrepeat
		_mainriff
		_mainriffends
		_everlong
		_startsong
		_everyother
		_heaviest
 This function uses a non-reentrant model


 *************** function _clockAndpin_config *****************
 Defined at:
		line 400 in file "main.c"
 Parameters:    Size  Location     Type
		None
 Auto vars:     Size  Location     Type
		None
 Return value:  Size  Location     Type
                  1    wreg      void 
 Registers used:
		wreg, status,2
 Tracked objects:
		On entry : 
		On exit  : 
		Unchanged: 
 Data sizes:     COMMON   BANK0   BANK1   BANK2   BANK3   BANK4   BANK5   BANK6   BANK7   BANK8   BANK9  BANK10  BANK11  BANK12
      Params:         0       0       0       0       0       0       0       0       0       0       0       0       0       0
      Locals:         0       0       0       0       0       0       0       0       0       0       0       0       0       0
      Temps:          0       0       0       0       0       0       0       0       0       0       0       0       0       0
      Totals:         0       0       0       0       0       0       0       0       0       0       0       0       0       0
Total ram usage:        0 bytes
 Hardware stack levels used:    1
 Hardware stack levels required when called:    2
 This function calls:
		Nothing
 This function is called by:
		_main
 This function uses a non-reentrant model


 *************** function _I2C_LCD_SWrite *****************
 Defined at:
		line 75 in file "header/i2c_LCD.h"
 Parameters:    Size  Location     Type
  Slave           1    wreg     unsigned char 
  Data            1    0[BANK0 ] PTR unsigned char 
		 -> main@Sout(16), 
  Max             1    1[BANK0 ] unsigned char 
 Auto vars:     Size  Location     Type
  Slave           1    5[BANK0 ] unsigned char 
  j               2    8[BANK0 ] int 
  k               2    0        int 
  L               1    7[BANK0 ] unsigned char 
  H               1    6[BANK0 ] unsigned char 
 Return value:  Size  Location     Type
                  1    wreg      void 
 Registers used:
		wreg, fsr1l, fsr1h, status,2, status,0, pclath, cstack
 Tracked objects:
		On entry : 
		On exit  : 
		Unchanged: 
 Data sizes:     COMMON   BANK0   BANK1   BANK2   BANK3   BANK4   BANK5   BANK6   BANK7   BANK8   BANK9  BANK10  BANK11  BANK12
      Params:         0       2       0       0       0       0       0       0       0       0       0       0       0       0
      Locals:         0       5       0       0       0       0       0       0       0       0       0       0       0       0
      Temps:          0       3       0       0       0       0       0       0       0       0       0       0       0       0
      Totals:         0      10       0       0       0       0       0       0       0       0       0       0       0       0
Total ram usage:       10 bytes
 Hardware stack levels used:    1
 Hardware stack levels required when called:    5
 This function calls:
		_I2C_LCD_Busy
		_i2c_Address
		_i2c_Start
		_i2c_Stop
		_i2c_Write
 This function is called by:
		_main
 This function uses a non-reentrant model


 *************** function _I2C_LCD_Pos *****************
 Defined at:
		line 60 in file "header/i2c_LCD.h"
 Parameters:    Size  Location     Type
  Slave           1    wreg     unsigned char 
  Pos             1    0[BANK0 ] unsigned char 
 Auto vars:     Size  Location     Type
  Slave           1    3[BANK0 ] unsigned char 
  LoBytex         1    5[BANK0 ] unsigned char 
  HiBytex         1    4[BANK0 ] unsigned char 
 Return value:  Size  Location     Type
                  1    wreg      void 
 Registers used:
		wreg, status,2, status,0, pclath, cstack
 Tracked objects:
		On entry : 
		On exit  : 
		Unchanged: 
 Data sizes:     COMMON   BANK0   BANK1   BANK2   BANK3   BANK4   BANK5   BANK6   BANK7   BANK8   BANK9  BANK10  BANK11  BANK12
      Params:         0       1       0       0       0       0       0       0       0       0       0       0       0       0
      Locals:         0       3       0       0       0       0       0       0       0       0       0       0       0       0
      Temps:          0       2       0       0       0       0       0       0       0       0       0       0       0       0
      Totals:         0       6       0       0       0       0       0       0       0       0       0       0       0       0
Total ram usage:        6 bytes
 Hardware stack levels used:    1
 Hardware stack levels required when called:    5
 This function calls:
		_I2C_LCD_Busy
		_i2c_Address
		_i2c_Start
		_i2c_Stop
		_i2c_Write
 This function is called by:
		_main
 This function uses a non-reentrant model


 *************** function _I2C_LCD_Init *****************
 Defined at:
		line 39 in file "header/i2c_LCD.h"
 Parameters:    Size  Location     Type
  Slave           1    wreg     unsigned char 
 Auto vars:     Size  Location     Type
  Slave           1    2[BANK0 ] unsigned char 
  Tvar1           1    1[BANK0 ] unsigned char 
 Return value:  Size  Location     Type
                  1    wreg      void 
 Registers used:
		wreg, status,2, status,0, pclath, cstack
 Tracked objects:
		On entry : 
		On exit  : 
		Unchanged: 
 Data sizes:     COMMON   BANK0   BANK1   BANK2   BANK3   BANK4   BANK5   BANK6   BANK7   BANK8   BANK9  BANK10  BANK11  BANK12
      Params:         0       0       0       0       0       0       0       0       0       0       0       0       0       0
      Locals:         0       2       0       0       0       0       0       0       0       0       0       0       0       0
      Temps:          0       1       0       0       0       0       0       0       0       0       0       0       0       0
      Totals:         0       3       0       0       0       0       0       0       0       0       0       0       0       0
Total ram usage:        3 bytes
 Hardware stack levels used:    1
 Hardware stack levels required when called:    5
 This function calls:
		_I2C_LCD_Busy
		_i2c_Address
		_i2c_Start
		_i2c_Stop
		_i2c_Write
 This function is called by:
		_main
 This function uses a non-reentrant model


 *************** function _I2C_LCD_Command *****************
 Defined at:
		line 97 in file "header/i2c_LCD.h"
 Parameters:    Size  Location     Type
  Slave           1    wreg     unsigned char 
  Cmd             1    0[BANK0 ] unsigned char 
 Auto vars:     Size  Location     Type
  Slave           1    3[BANK0 ] unsigned char 
  LoBytex         1    5[BANK0 ] unsigned char 
  HiBytex         1    4[BANK0 ] unsigned char 
 Return value:  Size  Location     Type
                  1    wreg      void 
 Registers used:
		wreg, status,2, status,0, pclath, cstack
 Tracked objects:
		On entry : 
		On exit  : 
		Unchanged: 
 Data sizes:     COMMON   BANK0   BANK1   BANK2   BANK3   BANK4   BANK5   BANK6   BANK7   BANK8   BANK9  BANK10  BANK11  BANK12
      Params:         0       1       0       0       0       0       0       0       0       0       0       0       0       0
      Locals:         0       3       0       0       0       0       0       0       0       0       0       0       0       0
      Temps:          0       2       0       0       0       0       0       0       0       0       0       0       0       0
      Totals:         0       6       0       0       0       0       0       0       0       0       0       0       0       0
Total ram usage:        6 bytes
 Hardware stack levels used:    1
 Hardware stack levels required when called:    5
 This function calls:
		_I2C_LCD_Busy
		_i2c_Address
		_i2c_Start
		_i2c_Stop
		_i2c_Write
 This function is called by:
		_main
 This function uses a non-reentrant model


 *************** function _I2C_LCD_Busy *****************
 Defined at:
		line 10 in file "header/i2c_LCD.h"
 Parameters:    Size  Location     Type
  Slave           1    wreg     unsigned char 
 Auto vars:     Size  Location     Type
  Slave           1    9[COMMON] unsigned char 
  read_byte       1    8[COMMON] unsigned char 
  Temp1           1    7[COMMON] unsigned char 
 Return value:  Size  Location     Type
                  1    wreg      unsigned char 
 Registers used:
		wreg, status,2, status,0, pclath, cstack
 Tracked objects:
		On entry : 
		On exit  : 
		Unchanged: 
 Data sizes:     COMMON   BANK0   BANK1   BANK2   BANK3   BANK4   BANK5   BANK6   BANK7   BANK8   BANK9  BANK10  BANK11  BANK12
      Params:         0       0       0       0       0       0       0       0       0       0       0       0       0       0
      Locals:         3       0       0       0       0       0       0       0       0       0       0       0       0       0
      Temps:          1       0       0       0       0       0       0       0       0       0       0       0       0       0
      Totals:         4       0       0       0       0       0       0       0       0       0       0       0       0       0
Total ram usage:        4 bytes
 Hardware stack levels used:    1
 Hardware stack levels required when called:    4
 This function calls:
		_i2c_Address
		_i2c_Read
		_i2c_Restart
		_i2c_Start
		_i2c_Stop
		_i2c_Write
 This function is called by:
		_I2C_LCD_Init
		_I2C_LCD_Pos
		_I2C_LCD_SWrite
		_I2C_LCD_Command
 This function uses a non-reentrant model


 *************** function _i2c_Write *****************
 Defined at:
		line 54 in file "header/i2c.h"
 Parameters:    Size  Location     Type
  data            1    wreg     unsigned char 
 Auto vars:     Size  Location     Type
  data            1    2[COMMON] unsigned char 
 Return value:  Size  Location     Type
                  1    wreg      void 
 Registers used:
		wreg, status,2, status,0, pclath, cstack
 Tracked objects:
		On entry : 
		On exit  : 
		Unchanged: 
 Data sizes:     COMMON   BANK0   BANK1   BANK2   BANK3   BANK4   BANK5   BANK6   BANK7   BANK8   BANK9  BANK10  BANK11  BANK12
      Params:         0       0       0       0       0       0       0       0       0       0       0       0       0       0
      Locals:         1       0       0       0       0       0       0       0       0       0       0       0       0       0
      Temps:          0       0       0       0       0       0       0       0       0       0       0       0       0       0
      Totals:         1       0       0       0       0       0       0       0       0       0       0       0       0       0
Total ram usage:        1 bytes
 Hardware stack levels used:    1
 Hardware stack levels required when called:    3
 This function calls:
		_i2c_Wait
 This function is called by:
		_I2C_LCD_Busy
		_I2C_LCD_Init
		_I2C_LCD_Pos
		_I2C_LCD_SWrite
		_I2C_LCD_Command
 This function uses a non-reentrant model


 *************** function _i2c_Stop *****************
 Defined at:
		line 47 in file "header/i2c.h"
 Parameters:    Size  Location     Type
		None
 Auto vars:     Size  Location     Type
		None
 Return value:  Size  Location     Type
                  1    wreg      void 
 Registers used:
		wreg, status,2, status,0, pclath, cstack
 Tracked objects:
		On entry : 
		On exit  : 
		Unchanged: 
 Data sizes:     COMMON   BANK0   BANK1   BANK2   BANK3   BANK4   BANK5   BANK6   BANK7   BANK8   BANK9  BANK10  BANK11  BANK12
      Params:         0       0       0       0       0       0       0       0       0       0       0       0       0       0
      Locals:         0       0       0       0       0       0       0       0       0       0       0       0       0       0
      Temps:          0       0       0       0       0       0       0       0       0       0       0       0       0       0
      Totals:         0       0       0       0       0       0       0       0       0       0       0       0       0       0
Total ram usage:        0 bytes
 Hardware stack levels used:    1
 Hardware stack levels required when called:    3
 This function calls:
		_i2c_Wait
 This function is called by:
		_I2C_LCD_Busy
		_I2C_LCD_Init
		_I2C_LCD_Pos
		_I2C_LCD_SWrite
		_I2C_LCD_Command
 This function uses a non-reentrant model


 *************** function _i2c_Start *****************
 Defined at:
		line 34 in file "header/i2c.h"
 Parameters:    Size  Location     Type
		None
 Auto vars:     Size  Location     Type
		None
 Return value:  Size  Location     Type
                  1    wreg      void 
 Registers used:
		wreg, status,2, status,0, pclath, cstack
 Tracked objects:
		On entry : 
		On exit  : 
		Unchanged: 
 Data sizes:     COMMON   BANK0   BANK1   BANK2   BANK3   BANK4   BANK5   BANK6   BANK7   BANK8   BANK9  BANK10  BANK11  BANK12
      Params:         0       0       0       0       0       0       0       0       0       0       0       0       0       0
      Locals:         0       0       0       0       0       0       0       0       0       0       0       0       0       0
      Temps:          0       0       0       0       0       0       0       0       0       0       0       0       0       0
      Totals:         0       0       0       0       0       0       0       0       0       0       0       0       0       0
Total ram usage:        0 bytes
 Hardware stack levels used:    1
 Hardware stack levels required when called:    3
 This function calls:
		_i2c_Wait
 This function is called by:
		_I2C_LCD_Busy
		_I2C_LCD_Init
		_I2C_LCD_Pos
		_I2C_LCD_SWrite
		_I2C_LCD_Command
 This function uses a non-reentrant model


 *************** function _i2c_Restart *****************
 Defined at:
		line 41 in file "header/i2c.h"
 Parameters:    Size  Location     Type
		None
 Auto vars:     Size  Location     Type
		None
 Return value:  Size  Location     Type
                  1    wreg      void 
 Registers used:
		wreg, status,2, status,0, pclath, cstack
 Tracked objects:
		On entry : 
		On exit  : 
		Unchanged: 
 Data sizes:     COMMON   BANK0   BANK1   BANK2   BANK3   BANK4   BANK5   BANK6   BANK7   BANK8   BANK9  BANK10  BANK11  BANK12
      Params:         0       0       0       0       0       0       0       0       0       0       0       0       0       0
      Locals:         0       0       0       0       0       0       0       0       0       0       0       0       0       0
      Temps:          0       0       0       0       0       0       0       0       0       0       0       0       0       0
      Totals:         0       0       0       0       0       0       0       0       0       0       0       0       0       0
Total ram usage:        0 bytes
 Hardware stack levels used:    1
 Hardware stack levels required when called:    3
 This function calls:
		_i2c_Wait
 This function is called by:
		_I2C_LCD_Busy
 This function uses a non-reentrant model


 *************** function _i2c_Read *****************
 Defined at:
		line 73 in file "header/i2c.h"
 Parameters:    Size  Location     Type
  ack             1    wreg     unsigned char 
 Auto vars:     Size  Location     Type
  ack             1    3[COMMON] unsigned char 
  i2cReadData     1    4[COMMON] unsigned char 
 Return value:  Size  Location     Type
                  1    wreg      unsigned char 
 Registers used:
		wreg, status,2, status,0, pclath, cstack
 Tracked objects:
		On entry : 
		On exit  : 
		Unchanged: 
 Data sizes:     COMMON   BANK0   BANK1   BANK2   BANK3   BANK4   BANK5   BANK6   BANK7   BANK8   BANK9  BANK10  BANK11  BANK12
      Params:         0       0       0       0       0       0       0       0       0       0       0       0       0       0
      Locals:         2       0       0       0       0       0       0       0       0       0       0       0       0       0
      Temps:          1       0       0       0       0       0       0       0       0       0       0       0       0       0
      Totals:         3       0       0       0       0       0       0       0       0       0       0       0       0       0
Total ram usage:        3 bytes
 Hardware stack levels used:    1
 Hardware stack levels required when called:    3
 This function calls:
		_i2c_Wait
 This function is called by:
		_I2C_LCD_Busy
 This function uses a non-reentrant model


 *************** function _i2c_Address *****************
 Defined at:
		line 62 in file "header/i2c.h"
 Parameters:    Size  Location     Type
  address         1    wreg     unsigned char 
  mode            1    2[COMMON] unsigned char 
 Auto vars:     Size  Location     Type
  address         1    4[COMMON] unsigned char 
  l_address       1    5[COMMON] unsigned char 
 Return value:  Size  Location     Type
                  1    wreg      void 
 Registers used:
		wreg, status,2, status,0, pclath, cstack
 Tracked objects:
		On entry : 
		On exit  : 
		Unchanged: 
 Data sizes:     COMMON   BANK0   BANK1   BANK2   BANK3   BANK4   BANK5   BANK6   BANK7   BANK8   BANK9  BANK10  BANK11  BANK12
      Params:         1       0       0       0       0       0       0       0       0       0       0       0       0       0
      Locals:         2       0       0       0       0       0       0       0       0       0       0       0       0       0
      Temps:          1       0       0       0       0       0       0       0       0       0       0       0       0       0
      Totals:         4       0       0       0       0       0       0       0       0       0       0       0       0       0
Total ram usage:        4 bytes
 Hardware stack levels used:    1
 Hardware stack levels required when called:    3
 This function calls:
		_i2c_Wait
 This function is called by:
		_I2C_LCD_Busy
		_I2C_LCD_Init
		_I2C_LCD_Pos
		_I2C_LCD_SWrite
		_I2C_LCD_Command
 This function uses a non-reentrant model


 *************** function _i2c_Wait *****************
 Defined at:
		line 29 in file "header/i2c.h"
 Parameters:    Size  Location     Type
		None
 Auto vars:     Size  Location     Type
		None
 Return value:  Size  Location     Type
                  1    wreg      void 
 Registers used:
		wreg, status,2
 Tracked objects:
		On entry : 
		On exit  : 
		Unchanged: 
 Data sizes:     COMMON   BANK0   BANK1   BANK2   BANK3   BANK4   BANK5   BANK6   BANK7   BANK8   BANK9  BANK10  BANK11  BANK12
      Params:         0       0       0       0       0       0       0       0       0       0       0       0       0       0
      Locals:         0       0       0       0       0       0       0       0       0       0       0       0       0       0
      Temps:          0       0       0       0       0       0       0       0       0       0       0       0       0       0
      Totals:         0       0       0       0       0       0       0       0       0       0       0       0       0       0
Total ram usage:        0 bytes
 Hardware stack levels used:    1
 Hardware stack levels required when called:    2
 This function calls:
		Nothing
 This function is called by:
		_i2c_Start
		_i2c_Restart
		_i2c_Stop
		_i2c_Write
		_i2c_Address
		_i2c_Read
 This function uses a non-reentrant model


 *************** function _get_Touch *****************
 Defined at:
		line 421 in file "main.c"
 Parameters:    Size  Location     Type
		None
 Auto vars:     Size  Location     Type
		None
 Return value:  Size  Location     Type
                  1    wreg      void 
 Registers used:
		wreg, fsr1l, fsr1h, status,2, status,0, pclath, cstack
 Tracked objects:
		On entry : 
		On exit  : 
		Unchanged: 
 Data sizes:     COMMON   BANK0   BANK1   BANK2   BANK3   BANK4   BANK5   BANK6   BANK7   BANK8   BANK9  BANK10  BANK11  BANK12
      Params:         0       0       0       0       0       0       0       0       0       0       0       0       0       0
      Locals:         0       0       0       0       0       0       0       0       0       0       0       0       0       0
      Temps:          2       0       0       0       0       0       0       0       0       0       0       0       0       0
      Totals:         2       0       0       0       0       0       0       0       0       0       0       0       0       0
Total ram usage:        2 bytes
 Hardware stack levels used:    1
 Hardware stack levels required when called:    1
 This function calls:
		i1_timer_config
 This function is called by:
		Interrupt level 1
 This function uses a non-reentrant model


 *************** function i1_timer_config *****************
 Defined at:
		line 412 in file "main.c"
 Parameters:    Size  Location     Type
		None
 Auto vars:     Size  Location     Type
		None
 Return value:  Size  Location     Type
                  1    wreg      void 
 Registers used:
		status,2
 Tracked objects:
		On entry : 
		On exit  : 
		Unchanged: 
 Data sizes:     COMMON   BANK0   BANK1   BANK2   BANK3   BANK4   BANK5   BANK6   BANK7   BANK8   BANK9  BANK10  BANK11  BANK12
      Params:         0       0       0       0       0       0       0       0       0       0       0       0       0       0
      Locals:         0       0       0       0       0       0       0       0       0       0       0       0       0       0
      Temps:          0       0       0       0       0       0       0       0       0       0       0       0       0       0
      Totals:         0       0       0       0       0       0       0       0       0       0       0       0       0       0
Total ram usage:        0 bytes
 Hardware stack levels used:    1
 This function calls:
		Nothing
 This function is called by:
		_get_Touch
 This function uses a non-reentrant model



MODULE INFORMATION

Module		Function		Class		Link	Load	Size
/opt/microchip/xc8/v1.45/sources/common/printf.c
		_printf        		CODE           	1238	0000	23

/opt/microchip/xc8/v1.45/sources/common/printf.c estimated size: 23

/opt/microchip/xc8/v1.45/sources/common/lwmod.c
		___lwmod       		CODE           	1306	0000	46

/opt/microchip/xc8/v1.45/sources/common/lwmod.c estimated size: 46

header/i2c.h
		_i2c_Address   		CODE           	0800	0000	16
		_i2c_Write     		CODE           	11A8	0000	8
		_i2c_Stop      		CODE           	118B	0000	6
		_i2c_Wait      		CODE           	11BE	0000	9
		_i2c_Read      		CODE           	1268	0000	29
		_i2c_Init      		CODE           	11F8	0000	13
		_i2c_Start     		CODE           	1186	0000	6
		_i2c_Restart   		CODE           	1181	0000	6

header/i2c.h estimated size: 93

shared
		_riff14        		STRCODE        	1B11	0000	9
		_riff33        		STRCODE        	1A79	0000	9
		_riff52        		STRCODE        	19E1	0000	9
		_riff71        		STRCODE        	1951	0000	9
		_riff90        		STRCODE        	18B9	0000	9
		_yellow8       		STRCODE        	1F79	0000	9
		_reddy1        		STRCODE        	1E59	0000	9
		_note59        		STRCODE        	1C71	0000	9
		_note78        		STRCODE        	1BD9	0000	9
		_riff17        		STRCODE        	1AF9	0000	9
		_riff36        		STRCODE        	1A61	0000	9
		_riff55        		STRCODE        	19C9	0000	9
		_riff74        		STRCODE        	1939	0000	9
		_riff93        		STRCODE        	18A1	0000	9
		_note3         		STRCODE        	1E31	0000	9
		_riff39        		STRCODE        	1A49	0000	9
		_riff58        		STRCODE        	19B1	0000	9
		_riff77        		STRCODE        	1921	0000	9
		_riff96        		STRCODE        	1889	0000	9
		_note22        		STRCODE        	1D99	0000	9
		_note41        		STRCODE        	1D01	0000	9
		_note60        		STRCODE        	1C69	0000	9
		_note9         		STRCODE        	1E01	0000	9
		_green3        		STRCODE        	1148	0000	9
		_riff1         		STRCODE        	1B79	0000	9
		_green11       		STRCODE        	1108	0000	9
		_green30       		STRCODE        	1070	0000	9
		_note25        		STRCODE        	1D81	0000	9
		_note44        		STRCODE        	1CE9	0000	9
		_note63        		STRCODE        	1C51	0000	9
		_note82        		STRCODE        	1BB9	0000	9
		_green6        		STRCODE        	1130	0000	9
		_riff21        		STRCODE        	1AD9	0000	9
		_riff40        		STRCODE        	1A41	0000	9
		_riff7         		STRCODE        	1B49	0000	9
		_green22       		STRCODE        	10B0	0000	9
		_green41       		STRCODE        	1018	0000	9
		_note28        		STRCODE        	1D69	0000	9
		_note47        		STRCODE        	1CD1	0000	9
		_note66        		STRCODE        	1C39	0000	9
		_green9        		STRCODE        	1118	0000	9
		_riff24        		STRCODE        	1AC1	0000	9
		_riff43        		STRCODE        	1A29	0000	9
		_riff62        		STRCODE        	1991	0000	9
		_riff81        		STRCODE        	1901	0000	9
		_green14       		STRCODE        	10F0	0000	9
		_green33       		STRCODE        	1058	0000	9
		_green52       		STRCODE        	1FB9	0000	9
		_note69        		STRCODE        	1C21	0000	9
		_yellow1       		STRCODE        	1FB1	0000	9
		_yellow10      		STRCODE        	1F69	0000	9
		_yellow11      		STRCODE        	1F61	0000	9
		_yellow12      		STRCODE        	1F59	0000	9
		_yellow13      		STRCODE        	1F51	0000	9
		_yellow14      		STRCODE        	1F49	0000	9
		_yellow15      		STRCODE        	1F41	0000	9
		_yellow16      		STRCODE        	1F39	0000	9
		_yellow17      		STRCODE        	1F31	0000	9
		_yellow18      		STRCODE        	1F29	0000	9
		_yellow19      		STRCODE        	1F21	0000	9
		_riff27        		STRCODE        	1AA9	0000	9
		_riff46        		STRCODE        	1A11	0000	9
		_riff65        		STRCODE        	1979	0000	9
		_riff84        		STRCODE        	18E9	0000	9
		_green25       		STRCODE        	1098	0000	9
		_green44       		STRCODE        	1000	0000	9
		_note10        		STRCODE        	1DF9	0000	9
		_note4         		STRCODE        	1E29	0000	9
		_riff49        		STRCODE        	19F9	0000	9
		_riff68        		STRCODE        	0000	0000	0
		_riff87        		STRCODE        	18D1	0000	9
		_dpowers       		STRCODE        	1851	0000	11
		_repeat1       		STRCODE        	1BA9	0000	9
		_green17       		STRCODE        	10D8	0000	9
		_green36       		STRCODE        	1040	0000	9
		_yellow4       		STRCODE        	1F99	0000	9
		_note13        		STRCODE        	1DE1	0000	9
		_note32        		STRCODE        	1D49	0000	9
		_note51        		STRCODE        	1CB1	0000	9
		_note70        		STRCODE        	1C19	0000	9
		_green28       		STRCODE        	1080	0000	9
		_green47       		STRCODE        	1FE1	0000	9
		_riff2         		STRCODE        	1B71	0000	9
		_note16        		STRCODE        	1DC9	0000	9
		_note35        		STRCODE        	1D31	0000	9
		_note54        		STRCODE        	1C99	0000	9
		_note73        		STRCODE        	1C01	0000	9
		_green39       		STRCODE        	1028	0000	9
		_riff12        		STRCODE        	1B21	0000	9
		_riff31        		STRCODE        	1A89	0000	9
		_riff50        		STRCODE        	19F1	0000	9
		_yellow7       		STRCODE        	1F81	0000	9
		_riff8         		STRCODE        	1B41	0000	9
		_note19        		STRCODE        	1DB1	0000	9
		_note38        		STRCODE        	1D19	0000	9
		_note57        		STRCODE        	1C81	0000	9
		_note76        		STRCODE        	1BE9	0000	9
		_riff15        		STRCODE        	1B09	0000	9
		_riff34        		STRCODE        	1A71	0000	9
		_riff53        		STRCODE        	19D9	0000	9
		_riff72        		STRCODE        	1949	0000	9
		_riff91        		STRCODE        	18B1	0000	9
		_reddy2        		STRCODE        	1E51	0000	9
		_note79        		STRCODE        	1BD1	0000	9
		_riff18        		STRCODE        	1AF1	0000	9
		_riff37        		STRCODE        	1A59	0000	9
		_riff56        		STRCODE        	19C1	0000	9
		_riff75        		STRCODE        	1931	0000	9
		_riff94        		STRCODE        	1899	0000	9
		_note20        		STRCODE        	1DA9	0000	9
		_note5         		STRCODE        	1E21	0000	9
		_green1        		STRCODE        	1158	0000	9
		_riff59        		STRCODE        	19A9	0000	9
		_riff78        		STRCODE        	1919	0000	9
		_riff97        		STRCODE        	1881	0000	9
		_green10       		STRCODE        	1110	0000	9
		_note23        		STRCODE        	1D91	0000	9
		_note42        		STRCODE        	1CF9	0000	9
		_note61        		STRCODE        	1C61	0000	9
		_note80        		STRCODE        	1BC9	0000	9
		_green4        		STRCODE        	1140	0000	9
		_riff3         		STRCODE        	1B69	0000	9
		_green21       		STRCODE        	10B8	0000	9
		_green40       		STRCODE        	1020	0000	9
		_note26        		STRCODE        	1D79	0000	9
		_note45        		STRCODE        	1CE1	0000	9
		_note64        		STRCODE        	1C49	0000	9
		_note83        		STRCODE        	1BB1	0000	9
		_green7        		STRCODE        	1128	0000	9
		__initialization		CODE           	0046	0000	28
		_riff22        		STRCODE        	1AD1	0000	9
		_riff41        		STRCODE        	1A39	0000	9
		_riff60        		STRCODE        	19A1	0000	9
		_riff9         		STRCODE        	1B39	0000	9
		_green13       		STRCODE        	10F8	0000	9
		_green32       		STRCODE        	1060	0000	9
		_green51       		STRCODE        	1FC1	0000	9
		_note29        		STRCODE        	1D61	0000	9
		_note48        		STRCODE        	1CC9	0000	9
		_note67        		STRCODE        	1C31	0000	9
		_riff25        		STRCODE        	1AB9	0000	9
		_riff44        		STRCODE        	1A21	0000	9
		_riff63        		STRCODE        	1989	0000	9
		_riff82        		STRCODE        	18F9	0000	9
		_green24       		STRCODE        	10A0	0000	9
		_green43       		STRCODE        	1008	0000	9
		_riff28        		STRCODE        	1AA1	0000	9
		_riff47        		STRCODE        	1A09	0000	9
		_riff66        		STRCODE        	1971	0000	9
		_riff85        		STRCODE        	18E1	0000	9
		_green16       		STRCODE        	10E0	0000	9
		_green35       		STRCODE        	1048	0000	9
		_yellow3       		STRCODE        	1FA1	0000	9
		_yellow30      		STRCODE        	1EC9	0000	9
		_yellow31      		STRCODE        	1EC1	0000	9
		_yellow32      		STRCODE        	1EB9	0000	9
		_yellow33      		STRCODE        	1EB1	0000	9
		_yellow34      		STRCODE        	1EA9	0000	9
		_yellow35      		STRCODE        	1EA1	0000	9
		_yellow36      		STRCODE        	1E99	0000	9
		_yellow37      		STRCODE        	1E91	0000	9
		_note11        		STRCODE        	1DF1	0000	9
		_note30        		STRCODE        	1D59	0000	9
		_note6         		STRCODE        	1E19	0000	9
		_riff69        		STRCODE        	1961	0000	9
		_riff88        		STRCODE        	18C9	0000	9
		_green27       		STRCODE        	1088	0000	9
		_green46       		STRCODE        	1FE9	0000	9
		_note14        		STRCODE        	1DD9	0000	9
		_note33        		STRCODE        	1D41	0000	9
		_note52        		STRCODE        	1CA9	0000	9
		_note71        		STRCODE        	1C11	0000	9
		_green19       		STRCODE        	10C8	0000	9
		_green38       		STRCODE        	1030	0000	9
		_riff10        		STRCODE        	1B31	0000	9
		_yellow6       		STRCODE        	1F89	0000	9
		_riff4         		STRCODE        	1B61	0000	9
		_note17        		STRCODE        	1DC1	0000	9
		_note36        		STRCODE        	1D29	0000	9
		_note55        		STRCODE        	1C91	0000	9
		_note74        		STRCODE        	1BF9	0000	9
		_everyother1   		STRCODE        	1B99	0000	9
		_everyother2   		STRCODE        	1B91	0000	9
		_everyother3   		STRCODE        	1B89	0000	9
		_everyother4   		STRCODE        	1B81	0000	9
		_green49       		STRCODE        	1FD1	0000	9
		_riff13        		STRCODE        	1B19	0000	9
		_riff32        		STRCODE        	1A81	0000	9
		_riff51        		STRCODE        	19E9	0000	9
		_riff70        		STRCODE        	1959	0000	9
		_note39        		STRCODE        	1D11	0000	9
		_note58        		STRCODE        	1C79	0000	9
		_note77        		STRCODE        	1BE1	0000	9
		_riff16        		STRCODE        	1B01	0000	9
		_riff35        		STRCODE        	1A69	0000	9
		_riff54        		STRCODE        	19D1	0000	9
		_riff73        		STRCODE        	1941	0000	9
		_riff92        		STRCODE        	18A9	0000	9
		_yellow9       		STRCODE        	1F71	0000	9
		_reddy3        		STRCODE        	1E49	0000	9
		_note1         		STRCODE        	1E41	0000	9
		_riff19        		STRCODE        	1AE9	0000	9
		_riff38        		STRCODE        	1A51	0000	9
		_riff57        		STRCODE        	19B9	0000	9
		_riff76        		STRCODE        	1929	0000	9
		_riff95        		STRCODE        	1891	0000	9
		_note21        		STRCODE        	1DA1	0000	9
		_note40        		STRCODE        	1D09	0000	9
		_note7         		STRCODE        	1E11	0000	9
		_green2        		STRCODE        	1150	0000	9
		_riff79        		STRCODE        	1911	0000	9
		_green1_1      		STRCODE        	1800	0000	9
		_green1_2      		STRCODE        	1168	0000	9
		_green1_3      		STRCODE        	1160	0000	9
		_green20       		STRCODE        	10C0	0000	9
		_note24        		STRCODE        	1D89	0000	9
		_note43        		STRCODE        	1CF1	0000	9
		_note62        		STRCODE        	1C59	0000	9
		_note81        		STRCODE        	1BC1	0000	9
		_green5        		STRCODE        	1138	0000	9
		_riff20        		STRCODE        	1AE1	0000	9
		_riff5         		STRCODE        	1B59	0000	9
		_green12       		STRCODE        	1100	0000	9
		_green31       		STRCODE        	1068	0000	9
		_green50       		STRCODE        	1FC9	0000	9
		_note27        		STRCODE        	1D71	0000	9
		_note46        		STRCODE        	1CD9	0000	9
		_note65        		STRCODE        	1C41	0000	9
		_green8        		STRCODE        	1120	0000	9
		_riff23        		STRCODE        	1AC9	0000	9
		_riff42        		STRCODE        	1A31	0000	9
		_riff61        		STRCODE        	1999	0000	9
		_riff80        		STRCODE        	1909	0000	9
		_green23       		STRCODE        	10A8	0000	9
		_green42       		STRCODE        	1010	0000	9
		_note49        		STRCODE        	1CC1	0000	9
		_note68        		STRCODE        	1C29	0000	9
		_riff26        		STRCODE        	1AB1	0000	9
		_riff45        		STRCODE        	1A19	0000	9
		_riff64        		STRCODE        	1981	0000	9
		_riff83        		STRCODE        	18F1	0000	9
		_green15       		STRCODE        	10E8	0000	9
		_green34       		STRCODE        	1050	0000	9
		_yellow2       		STRCODE        	1FA9	0000	9
		_yellow20      		STRCODE        	1F19	0000	9
		_yellow21      		STRCODE        	1F11	0000	9
		_yellow22      		STRCODE        	1F09	0000	9
		_yellow23      		STRCODE        	1F01	0000	9
		_yellow24      		STRCODE        	1EF9	0000	9
		_yellow25      		STRCODE        	1EF1	0000	9
		_yellow26      		STRCODE        	1EE9	0000	9
		_yellow27      		STRCODE        	1EE1	0000	9
		_yellow28      		STRCODE        	1ED9	0000	9
		_yellow29      		STRCODE        	1ED1	0000	9
		i1_timer_config		CODE           	11B6	0000	9
		_note2         		STRCODE        	1E39	0000	9
		_riff29        		STRCODE        	1A99	0000	9
		_riff48        		STRCODE        	1A01	0000	9
		_riff67        		STRCODE        	1969	0000	9
		_riff86        		STRCODE        	18D9	0000	9
		_green26       		STRCODE        	1090	0000	9
		_green45       		STRCODE        	1FF1	0000	9
		_note12        		STRCODE        	1DE9	0000	9
		_note31        		STRCODE        	1D51	0000	9
		_note50        		STRCODE        	1CB9	0000	9
		_yellowred1    		STRCODE        	1E89	0000	9
		_yellowred2    		STRCODE        	1E81	0000	9
		_yellowred3    		STRCODE        	1E79	0000	9
		_yellowred4    		STRCODE        	1E71	0000	9
		_yellowred5    		STRCODE        	1E69	0000	9
		_yellowred6    		STRCODE        	1E61	0000	9
		_note8         		STRCODE        	1E09	0000	9
		_riff89        		STRCODE        	18C1	0000	9
		_repeat2       		STRCODE        	1BA1	0000	9
		_green18       		STRCODE        	10D0	0000	9
		_green37       		STRCODE        	1038	0000	9
		_yellow5       		STRCODE        	1F91	0000	9
		_note15        		STRCODE        	1DD1	0000	9
		_note34        		STRCODE        	1D39	0000	9
		_note53        		STRCODE        	1CA1	0000	9
		_note72        		STRCODE        	1C09	0000	9
		_green29       		STRCODE        	1078	0000	9
		_green48       		STRCODE        	1FD9	0000	9
		_riff11        		STRCODE        	1B29	0000	9
		_riff30        		STRCODE        	1A91	0000	9
		_riff6         		STRCODE        	1B51	0000	9
		_note18        		STRCODE        	1DB9	0000	9
		_note37        		STRCODE        	1D21	0000	9
		_note56        		STRCODE        	1C89	0000	9
		_note75        		STRCODE        	1BF1	0000	9

shared estimated size: 2622

/opt/microchip/xc8/v1.45/sources/common/lwdiv.c
		___lwdiv       		CODE           	1333	0000	53

/opt/microchip/xc8/v1.45/sources/common/lwdiv.c estimated size: 53

/opt/microchip/xc8/v1.45/sources/common/sprintf.c
		_sprintf       		CODE           	1284	0000	30

/opt/microchip/xc8/v1.45/sources/common/sprintf.c estimated size: 30

/opt/microchip/xc8/v1.45/sources/common/doprnt.c
		__doprnt       		CODE           	15BE	0000	286

/opt/microchip/xc8/v1.45/sources/common/doprnt.c estimated size: 286

main.c
		_bluenote      		CODE           	11A2	0000	7
		_pinConfig     		CODE           	1179	0000	5
		_slowride      		CODE           	07CE	0000	50
		_display       		CODE           	12A1	0000	33
		_putch         		CODE           	11AF	0000	8
		_yellownote    		CODE           	119C	0000	7
		_mainriff      		CODE           	1556	0000	105
		_yellownotes   		CODE           	055D	0000	437
		_yellowrednotes		CODE           	145C	0000	73
		_mainriffends  		CODE           	080F	0000	105
		_everlong      		CODE           	0BC3	0000	1086
		_main          		CODE           	0877	0000	845
		_greenrepeat   		CODE           	0711	0000	190
		_delay2        		CODE           	11CE	0000	10
		_emptynote     		CODE           	1190	0000	7
		_timer_config  		CODE           	11C6	0000	9
		_SPI_Write     		CODE           	12C1	0000	34
		_init8x8       		CODE           	11E0	0000	13
		_heaviest      		CODE           	0065	0000	1273
		_setup_comms   		CODE           	1211	0000	18
		_MAX7219_Write 		CODE           	1204	0000	14
		_get_Touch     		CODE           	0004	0000	65
		_clockAndpin_config		CODE           	1222	0000	23
		_everyother    		CODE           	1367	0000	53
		_delay3        		CODE           	11D7	0000	10
		_startsong     		CODE           	124E	0000	27
		_rednote       		CODE           	1196	0000	7
		_rednotes      		CODE           	12E2	0000	37
		_greennote     		CODE           	1175	0000	5
		_greenbegins   		CODE           	16DB	0000	294
		_delay1        		CODE           	11EC	0000	13

main.c estimated size: 4863

header/i2c_LCD.h
		_I2C_LCD_SWrite		CODE           	14FB	0000	92
		_I2C_LCD_Command		CODE           	139B	0000	60
		_I2C_LCD_Pos   		CODE           	13D6	0000	64
		_I2C_LCD_Init  		CODE           	1415	0000	72
		_I2C_LCD_Busy  		CODE           	14A4	0000	88

header/i2c_LCD.h estimated size: 376

